; Listing generated by Microsoft (R) Optimizing Compiler Version 19.00.24215.1 

include listing.inc

INCLUDELIB LIBCMT
INCLUDELIB OLDNAMES

PUBLIC	?MAX_SAMPLE_RATES@RtApi@@1IB			; RtApi::MAX_SAMPLE_RATES
PUBLIC	?SAMPLE_RATES@RtApi@@1QBIB			; RtApi::SAMPLE_RATES
CONST	SEGMENT
$SG129029 DB	'RtApiDs::probeDeviceOpen: error creating callback thread'
	DB	'!', 00H
$SG129654 DB	00H
	ORG $+5
$SG129059 DB	'RtApiDs::closeStream(): no open stream to close!', 00H
	ORG $+3
?MAX_SAMPLE_RATES@RtApi@@1IB DD 0eH			; RtApi::MAX_SAMPLE_RATES
$SG129097 DB	'RtApiDs::startStream(): the stream is already running!', 00H
	ORG $+1
$SG129102 DB	') starting output buffer!', 00H
	ORG $+2
$SG128452 DB	')!', 00H
	ORG $+1
$SG129103 DB	'RtApiDs::startStream: error (', 00H
	ORG $+2
$SG129108 DB	') starting input buffer!', 00H
	ORG $+3
$SG128468 DB	')!', 00H
	ORG $+1
$SG129109 DB	'RtApiDs::startStream: error (', 00H
	ORG $+2
$SG129175 DB	'RtApiDs::stopStream(): the stream is already stopped!', 00H
	ORG $+2
?SAMPLE_RATES@RtApi@@1QBIB DD 0fa0H			; RtApi::SAMPLE_RATES
	DD	01588H
	DD	01f40H
	DD	02580H
	DD	02b11H
	DD	03e80H
	DD	05622H
	DD	07d00H
	DD	0ac44H
	DD	0bb80H
	DD	015888H
	DD	017700H
	DD	02b110H
	DD	02ee00H
$SG129180 DB	') stopping output buffer!', 00H
	ORG $+2
$SG128472 DB	')!', 00H
	ORG $+1
$SG129181 DB	'RtApiDs::stopStream: error (', 00H
	ORG $+3
$SG129184 DB	') locking output buffer!', 00H
	ORG $+3
$SG124424 DB	'5.0.0', 00H
	ORG $+2
$SG129660 DB	0aH, 0aH, 00H
	ORG $+1
$SG128160 DB	') enumerating output devices!', 00H
	ORG $+2
$SG129185 DB	'RtApiDs::stopStream: error (', 00H
	ORG $+3
$SG128161 DB	'RtApiDs::getDeviceCount: error (', 00H
	ORG $+3
$SG128925 DB	')!', 00H
	ORG $+1
$SG128163 DB	') enumerating input devices!', 00H
	ORG $+3
$SG129188 DB	') unlocking output buffer!', 00H
	ORG $+1
$SG128929 DB	')!', 00H
	ORG $+1
$SG128164 DB	'RtApiDs::getDeviceCount: error (', 00H
	ORG $+3
$SG128939 DB	')!', 00H
	ORG $+1
$SG129189 DB	'RtApiDs::stopStream: error (', 00H
	ORG $+3
$SG129195 DB	') stopping input buffer!', 00H
	ORG $+3
$SG128943 DB	')!', 00H
	ORG $+1
$SG129196 DB	'RtApiDs::stopStream: error (', 00H
	ORG $+3
$SG129199 DB	') locking input buffer!', 00H
$SG129200 DB	'RtApiDs::stopStream: error (', 00H
	ORG $+3
$SG129203 DB	') unlocking input buffer!', 00H
	ORG $+2
$SG128947 DB	')!', 00H
	ORG $+1
$SG129204 DB	'RtApiDs::stopStream: error (', 00H
	ORG $+3
$SG129213 DB	'RtApiDs::abortStream(): the stream is already stopped!', 00H
	ORG $+1
$SG125205 DB	0aH, 'RtAudio: no compiled support for specified API argu'
	DB	'ment!', 0aH, 00H
	ORG $+1
$SG128952 DB	')!', 00H
	ORG $+1
$SG125208 DB	0aH, 'RtAudio: no compiled API support found ... critical'
	DB	' error!!', 0aH, 0aH, 00H
	ORG $+1
$SG125271 DB	'RtApi::openStream: a stream is already open!', 00H
	ORG $+3
$SG129396 DB	') getting current write position!', 00H
	ORG $+6
$SG125273 DB	'RtApi::openStream: a non-NULL output StreamParameters st'
	DB	'ructure cannot have an nChannels value less than one.', 00H
	ORG $+2
$SG125275 DB	'RtApi::openStream: a non-NULL input StreamParameters str'
	DB	'ucture cannot have an nChannels value less than one.', 00H
	ORG $+3
$SG125277 DB	'RtApi::openStream: input and output StreamParameters str'
	DB	'uctures are both NULL!', 00H
	ORG $+1
$SG125279 DB	'RtApi::openStream: ''format'' parameter value is undefin'
	DB	'ed.', 00H
	ORG $+2
$SG128956 DB	')!', 00H
	ORG $+1
$SG125282 DB	'RtApi::openStream: output device parameter value is inva'
	DB	'lid.', 00H
	ORG $+3
$SG129381 DB	'RtApiDs::callbackEvent(): the stream is closed ... this '
	DB	'shouldn''t happen!', 00H
	ORG $+2
$SG128960 DB	')!', 00H
	ORG $+1
$SG125285 DB	'RtApi::openStream: input device parameter value is inval'
	DB	'id.', 00H
$SG128964 DB	')!', 00H
	ORG $+1
$SG129397 DB	'RtApiDs::callbackEvent: error (', 00H
$SG129399 DB	') getting current read position!', 00H
	ORG $+3
$SG128969 DB	')!', 00H
	ORG $+1
$SG129400 DB	'RtApiDs::callbackEvent: error (', 00H
$SG129402 DB	') getting current write position!', 00H
	ORG $+2
$SG128973 DB	')!', 00H
	ORG $+1
$SG129403 DB	'RtApiDs::callbackEvent: error (', 00H
$SG129405 DB	') getting current read position!', 00H
	ORG $+3
$SG128985 DB	')!', 00H
	ORG $+1
$SG129406 DB	'RtApiDs::callbackEvent: error (', 00H
$SG129411 DB	') getting current write position!', 00H
	ORG $+2
$SG128989 DB	')!', 00H
	ORG $+1
$SG129412 DB	'RtApiDs::callbackEvent: error (', 00H
$SG129421 DB	') getting current write position!', 00H
	ORG $+2
$SG128993 DB	')!', 00H
	ORG $+1
$SG129422 DB	'RtApiDs::callbackEvent: error (', 00H
$SG129431 DB	') locking buffer during playback!', 00H
	ORG $+2
$SG128997 DB	')!', 00H
	ORG $+1
$SG129432 DB	'RtApiDs::callbackEvent: error (', 00H
$SG129435 DB	') unlocking buffer during playback!', 00H
	ORG $+4
$SG129436 DB	'RtApiDs::callbackEvent: error (', 00H
$SG129444 DB	') getting current read position!', 00H
	ORG $+7
$SG129445 DB	'RtApiDs::callbackEvent: error (', 00H
$SG129457 DB	') getting current read position!', 00H
	ORG $+7
$SG129458 DB	'RtApiDs::callbackEvent: error (', 00H
$SG129461 DB	') locking capture buffer!', 00H
	ORG $+6
$SG129462 DB	'RtApiDs::callbackEvent: error (', 00H
$SG129468 DB	') unlocking capture buffer!', 00H
	ORG $+4
$SG129469 DB	'RtApiDs::callbackEvent: error (', 00H
$SG128446 DB	'RtApiDs::getDeviceInfo: no devices found!', 00H
	ORG $+6
$SG128448 DB	'RtApiDs::getDeviceInfo: device ID is invalid!', 00H
	ORG $+2
$SG128453 DB	') opening output device (', 00H
	ORG $+6
$SG128454 DB	'RtApiDs::getDeviceInfo: error (', 00H
$SG128457 DB	') getting capabilities!', 00H
$SG128458 DB	'RtApiDs::getDeviceInfo: error (', 00H
$SG128469 DB	') opening input device (', 00H
	ORG $+7
$SG128470 DB	'RtApiDs::getDeviceInfo: error (', 00H
$SG128473 DB	') getting object capabilities (', 00H
$SG128474 DB	'RtApiDs::getDeviceInfo: error (', 00H
$SG129546 DB	'Default Device', 00H
	ORG $+1
$SG129608 DB	'Already allocated', 00H
	ORG $+6
$SG129610 DB	'Control unavailable', 00H
	ORG $+4
$SG129612 DB	'Invalid parameter', 00H
	ORG $+6
$SG129614 DB	'Invalid call', 00H
	ORG $+3
$SG129616 DB	'Generic error', 00H
	ORG $+2
$SG129618 DB	'Priority level needed', 00H
	ORG $+2
$SG129620 DB	'Out of memory', 00H
	ORG $+2
$SG129622 DB	'The sample rate or the channel format is not supported', 00H
	ORG $+1
$SG129624 DB	'Not supported', 00H
	ORG $+2
$SG129626 DB	'No driver', 00H
	ORG $+6
$SG129628 DB	'Already initialized', 00H
	ORG $+4
$SG129630 DB	'No aggregation', 00H
	ORG $+1
$SG129632 DB	'Buffer lost', 00H
	ORG $+4
$SG129634 DB	'Another application already has priority', 00H
	ORG $+7
$SG129636 DB	'Uninitialized', 00H
	ORG $+2
$SG129638 DB	'DirectSound unknown error', 00H
	ORG $+6
$SG129667 DB	'RtApi:: a stream is not open!', 00H
	ORG $+2
$SG129689 DB	'RtApi::formatBytes: undefined format.', 00H
	ORG $+10
$SG128906 DB	'RtApiDs::probeDeviceOpen: DirectSound does not support m'
	DB	'ore than 2 channels per device.', 00H
$SG128908 DB	'RtApiDs::probeDeviceOpen: no devices found!', 00H
	ORG $+4
$SG128910 DB	'RtApiDs::probeDeviceOpen: device ID is invalid!', 00H
$SG128914 DB	') does not support output!', 00H
	ORG $+5
$SG128915 DB	'RtApiDs::probeDeviceOpen: device (', 00H
	ORG $+5
$SG128917 DB	') does not support input!', 00H
	ORG $+6
$SG128918 DB	'RtApiDs::probeDeviceOpen: device (', 00H
	ORG $+5
$SG128926 DB	') opening output device (', 00H
	ORG $+6
$SG128927 DB	'RtApiDs::probeDeviceOpen: error (', 00H
	ORG $+6
$SG128930 DB	') getting capabilities (', 00H
	ORG $+7
$SG128931 DB	'RtApiDs::probeDeviceOpen: error (', 00H
	ORG $+6
$SG128933 DB	') does not support stereo playback.', 00H
	ORG $+4
$SG128934 DB	'RtApiDs::getDeviceInfo: the output device (', 00H
	ORG $+4
$SG128940 DB	') setting cooperative level (', 00H
	ORG $+2
$SG128941 DB	'RtApiDs::probeDeviceOpen: error (', 00H
	ORG $+6
$SG128944 DB	') accessing primary buffer (', 00H
	ORG $+3
$SG128945 DB	'RtApiDs::probeDeviceOpen: error (', 00H
	ORG $+6
$SG128948 DB	') setting primary buffer format (', 00H
	ORG $+6
$SG128949 DB	'RtApiDs::probeDeviceOpen: error (', 00H
	ORG $+6
$SG128953 DB	') creating secondary buffer (', 00H
	ORG $+2
$SG128954 DB	'RtApiDs::probeDeviceOpen: error (', 00H
	ORG $+6
$SG128957 DB	') getting buffer settings (', 00H
	ORG $+4
$SG128958 DB	'RtApiDs::probeDeviceOpen: error (', 00H
	ORG $+6
$SG128961 DB	') locking buffer (', 00H
	ORG $+5
$SG128962 DB	'RtApiDs::probeDeviceOpen: error (', 00H
	ORG $+6
$SG128965 DB	') unlocking buffer (', 00H
	ORG $+3
$SG128966 DB	'RtApiDs::probeDeviceOpen: error (', 00H
	ORG $+6
$SG128970 DB	') opening input device (', 00H
	ORG $+7
$SG128971 DB	'RtApiDs::probeDeviceOpen: error (', 00H
	ORG $+6
$SG128974 DB	') getting input capabilities (', 00H
	ORG $+1
$SG128975 DB	'RtApiDs::probeDeviceOpen: error (', 00H
	ORG $+6
$SG128977 DB	'RtApiDs::getDeviceInfo: the input device does not suppor'
	DB	't requested input channels.', 00H
	ORG $+4
$SG128986 DB	') creating input buffer (', 00H
	ORG $+6
$SG128987 DB	'RtApiDs::probeDeviceOpen: error (', 00H
	ORG $+6
$SG128990 DB	') getting buffer settings (', 00H
	ORG $+4
$SG128991 DB	'RtApiDs::probeDeviceOpen: error (', 00H
	ORG $+6
$SG128994 DB	') locking input buffer (', 00H
	ORG $+7
$SG128995 DB	'RtApiDs::probeDeviceOpen: error (', 00H
	ORG $+6
$SG128998 DB	') unlocking input buffer (', 00H
	ORG $+5
$SG128999 DB	'RtApiDs::probeDeviceOpen: error (', 00H
	ORG $+6
$SG129006 DB	'RtApiDs::probeDeviceOpen: error allocating user buffer m'
	DB	'emory.', 00H
	ORG $+9
$SG129015 DB	'RtApiDs::probeDeviceOpen: error allocating device buffer'
	DB	' memory.', 00H
	ORG $+7
$SG129022 DB	'RtApiDs::probeDeviceOpen: error allocating AsioHandle me'
	DB	'mory.', 00H
CONST	ENDS
PUBLIC	fabsl
PUBLIC	frexpl
PUBLIC	__local_stdio_printf_options
PUBLIC	??$__vcrt_va_start_verify_argument_type@QEBD@@YAXXZ ; __vcrt_va_start_verify_argument_type<char const * __ptr64 const>
PUBLIC	_vsprintf_s_l
PUBLIC	sprintf_s
PUBLIC	??0exception@std@@QEAA@QEBD@Z			; std::exception::exception
PUBLIC	??0exception@std@@QEAA@QEBDH@Z			; std::exception::exception
PUBLIC	??0exception@std@@QEAA@AEBV01@@Z		; std::exception::exception
PUBLIC	??1exception@std@@UEAA@XZ			; std::exception::~exception
PUBLIC	?what@exception@std@@UEBAPEBDXZ			; std::exception::what
PUBLIC	??_Gexception@std@@UEAAPEAXI@Z			; std::exception::`scalar deleting destructor'
PUBLIC	??2@YAPEAX_KPEAX@Z				; operator new
PUBLIC	??3@YAXPEAX0@Z					; operator delete
PUBLIC	?compare@?$char_traits@D@std@@SAHPEBD0_K@Z	; std::char_traits<char>::compare
PUBLIC	?length@?$char_traits@D@std@@SA_KPEBD@Z		; std::char_traits<char>::length
PUBLIC	?copy@?$char_traits@D@std@@SAPEADPEADPEBD_K@Z	; std::char_traits<char>::copy
PUBLIC	?move@?$char_traits@D@std@@SAPEADPEADPEBD_K@Z	; std::char_traits<char>::move
PUBLIC	?assign@?$char_traits@D@std@@SAPEADPEAD_KD@Z	; std::char_traits<char>::assign
PUBLIC	?assign@?$char_traits@D@std@@SAXAEADAEBD@Z	; std::char_traits<char>::assign
PUBLIC	?eq@?$char_traits@D@std@@SA_NAEBD0@Z		; std::char_traits<char>::eq
PUBLIC	?to_char_type@?$char_traits@D@std@@SADAEBH@Z	; std::char_traits<char>::to_char_type
PUBLIC	?to_int_type@?$char_traits@D@std@@SAHAEBD@Z	; std::char_traits<char>::to_int_type
PUBLIC	?eq_int_type@?$char_traits@D@std@@SA_NAEBH0@Z	; std::char_traits<char>::eq_int_type
PUBLIC	?not_eof@?$char_traits@D@std@@SAHAEBH@Z		; std::char_traits<char>::not_eof
PUBLIC	?eof@?$char_traits@D@std@@SAHXZ			; std::char_traits<char>::eof
PUBLIC	?_Orphan_all@_Container_base0@std@@QEAAXXZ	; std::_Container_base0::_Orphan_all
PUBLIC	?_Swap_all@_Container_base0@std@@QEAAXAEAU12@@Z	; std::_Container_base0::_Swap_all
PUBLIC	?_Adopt@_Iterator_base0@std@@QEAAXPEBX@Z	; std::_Iterator_base0::_Adopt
PUBLIC	?_Allocate@std@@YAPEAX_K0_N@Z			; std::_Allocate
PUBLIC	?_Deallocate@std@@YAXPEAX_K1@Z			; std::_Deallocate
PUBLIC	?_Init_atomic_counter@std@@YAXAEAKK@Z		; std::_Init_atomic_counter
PUBLIC	??0?$allocator@D@std@@QEAA@XZ			; std::allocator<char>::allocator<char>
PUBLIC	??0?$allocator@D@std@@QEAA@AEBV01@@Z		; std::allocator<char>::allocator<char>
PUBLIC	?deallocate@?$allocator@D@std@@QEAAXPEAD_K@Z	; std::allocator<char>::deallocate
PUBLIC	?allocate@?$allocator@D@std@@QEAAPEAD_K@Z	; std::allocator<char>::allocate
PUBLIC	?max_size@?$allocator@D@std@@QEBA_KXZ		; std::allocator<char>::max_size
PUBLIC	?max_size@?$allocator_traits@V?$allocator@D@std@@@std@@SA_KAEBV?$allocator@D@2@@Z ; std::allocator_traits<std::allocator<char> >::max_size
PUBLIC	?select_on_container_copy_construction@?$allocator_traits@V?$allocator@D@std@@@std@@SA?AV?$allocator@D@2@AEBV32@@Z ; std::allocator_traits<std::allocator<char> >::select_on_container_copy_construction
PUBLIC	?select_on_container_copy_construction@?$_Wrap_alloc@V?$allocator@D@std@@@std@@QEBA?AU12@U_Nil@2@@Z ; std::_Wrap_alloc<std::allocator<char> >::select_on_container_copy_construction
PUBLIC	?address@?$_Wrap_alloc@V?$allocator@D@std@@@std@@QEBAPEADAEAD@Z ; std::_Wrap_alloc<std::allocator<char> >::address
PUBLIC	??0?$_Wrap_alloc@V?$allocator@D@std@@@std@@QEAA@XZ ; std::_Wrap_alloc<std::allocator<char> >::_Wrap_alloc<std::allocator<char> >
PUBLIC	??0?$_Wrap_alloc@V?$allocator@D@std@@@std@@QEAA@$$QEAU01@@Z ; std::_Wrap_alloc<std::allocator<char> >::_Wrap_alloc<std::allocator<char> >
PUBLIC	??4?$_Wrap_alloc@V?$allocator@D@std@@@std@@QEAAAEAU01@$$QEAU01@@Z ; std::_Wrap_alloc<std::allocator<char> >::operator=
PUBLIC	?allocate@?$_Wrap_alloc@V?$allocator@D@std@@@std@@QEAAPEAD_K@Z ; std::_Wrap_alloc<std::allocator<char> >::allocate
PUBLIC	?deallocate@?$_Wrap_alloc@V?$allocator@D@std@@@std@@QEAAXPEAD_K@Z ; std::_Wrap_alloc<std::allocator<char> >::deallocate
PUBLIC	?max_size@?$_Wrap_alloc@V?$allocator@D@std@@@std@@QEBA_KU_Nil@2@@Z ; std::_Wrap_alloc<std::allocator<char> >::max_size
PUBLIC	??0?$_String_val@U?$_Simple_types@D@std@@@std@@QEAA@XZ ; std::_String_val<std::_Simple_types<char> >::_String_val<std::_Simple_types<char> >
PUBLIC	?_Myptr@?$_String_val@U?$_Simple_types@D@std@@@std@@QEAAPEADXZ ; std::_String_val<std::_Simple_types<char> >::_Myptr
PUBLIC	?_Myptr@?$_String_val@U?$_Simple_types@D@std@@@std@@QEBAPEBDXZ ; std::_String_val<std::_Simple_types<char> >::_Myptr
PUBLIC	??0_Bxty@?$_String_val@U?$_Simple_types@D@std@@@std@@QEAA@XZ ; std::_String_val<std::_Simple_types<char> >::_Bxty::_Bxty
PUBLIC	??1_Bxty@?$_String_val@U?$_Simple_types@D@std@@@std@@QEAA@XZ ; std::_String_val<std::_Simple_types<char> >::_Bxty::~_Bxty
PUBLIC	??1?$_String_val@U?$_Simple_types@D@std@@@std@@QEAA@XZ ; std::_String_val<std::_Simple_types<char> >::~_String_val<std::_Simple_types<char> >
PUBLIC	?_Myptr@?$_String_alloc@U?$_String_base_types@DV?$allocator@D@std@@@std@@@std@@QEAAPEADXZ ; std::_String_alloc<std::_String_base_types<char,std::allocator<char> > >::_Myptr
PUBLIC	?_Myptr@?$_String_alloc@U?$_String_base_types@DV?$allocator@D@std@@@std@@@std@@QEBAPEBDXZ ; std::_String_alloc<std::_String_base_types<char,std::allocator<char> > >::_Myptr
PUBLIC	??0?$_String_alloc@U?$_String_base_types@DV?$allocator@D@std@@@std@@@std@@QEAA@XZ ; std::_String_alloc<std::_String_base_types<char,std::allocator<char> > >::_String_alloc<std::_String_base_types<char,std::allocator<char> > >
PUBLIC	?_Copy_alloc@?$_String_alloc@U?$_String_base_types@DV?$allocator@D@std@@@std@@@std@@QEAAXAEBU?$_Wrap_alloc@V?$allocator@D@std@@@2@@Z ; std::_String_alloc<std::_String_base_types<char,std::allocator<char> > >::_Copy_alloc
PUBLIC	?_Move_alloc@?$_String_alloc@U?$_String_base_types@DV?$allocator@D@std@@@std@@@std@@QEAAXAEAU?$_Wrap_alloc@V?$allocator@D@std@@@2@@Z ; std::_String_alloc<std::_String_base_types<char,std::allocator<char> > >::_Move_alloc
PUBLIC	?_Getal@?$_String_alloc@U?$_String_base_types@DV?$allocator@D@std@@@std@@@std@@QEAAAEAU?$_Wrap_alloc@V?$allocator@D@std@@@2@XZ ; std::_String_alloc<std::_String_base_types<char,std::allocator<char> > >::_Getal
PUBLIC	?_Getal@?$_String_alloc@U?$_String_base_types@DV?$allocator@D@std@@@std@@@std@@QEBAAEBU?$_Wrap_alloc@V?$allocator@D@std@@@2@XZ ; std::_String_alloc<std::_String_base_types<char,std::allocator<char> > >::_Getal
PUBLIC	?_Get_data@?$_String_alloc@U?$_String_base_types@DV?$allocator@D@std@@@std@@@std@@QEAAAEAV?$_String_val@U?$_Simple_types@D@std@@@2@XZ ; std::_String_alloc<std::_String_base_types<char,std::allocator<char> > >::_Get_data
PUBLIC	?_Get_data@?$_String_alloc@U?$_String_base_types@DV?$allocator@D@std@@@std@@@std@@QEBAAEBV?$_String_val@U?$_Simple_types@D@std@@@2@XZ ; std::_String_alloc<std::_String_base_types<char,std::allocator<char> > >::_Get_data
PUBLIC	?_Bx@?$_String_alloc@U?$_String_base_types@DV?$allocator@D@std@@@std@@@std@@QEAAAEAT_Bxty@?$_String_val@U?$_Simple_types@D@std@@@2@XZ ; std::_String_alloc<std::_String_base_types<char,std::allocator<char> > >::_Bx
PUBLIC	?_Mysize@?$_String_alloc@U?$_String_base_types@DV?$allocator@D@std@@@std@@@std@@QEAAAEA_KXZ ; std::_String_alloc<std::_String_base_types<char,std::allocator<char> > >::_Mysize
PUBLIC	?_Mysize@?$_String_alloc@U?$_String_base_types@DV?$allocator@D@std@@@std@@@std@@QEBAAEB_KXZ ; std::_String_alloc<std::_String_base_types<char,std::allocator<char> > >::_Mysize
PUBLIC	?_Myres@?$_String_alloc@U?$_String_base_types@DV?$allocator@D@std@@@std@@@std@@QEAAAEA_KXZ ; std::_String_alloc<std::_String_base_types<char,std::allocator<char> > >::_Myres
PUBLIC	?_Get_first@?$_Compressed_pair@U?$_Wrap_alloc@V?$allocator@D@std@@@std@@V?$_String_val@U?$_Simple_types@D@std@@@2@$00@std@@QEAAAEAU?$_Wrap_alloc@V?$allocator@D@std@@@2@XZ ; std::_Compressed_pair<std::_Wrap_alloc<std::allocator<char> >,std::_String_val<std::_Simple_types<char> >,1>::_Get_first
PUBLIC	?_Get_first@?$_Compressed_pair@U?$_Wrap_alloc@V?$allocator@D@std@@@std@@V?$_String_val@U?$_Simple_types@D@std@@@2@$00@std@@QEBAAEBU?$_Wrap_alloc@V?$allocator@D@std@@@2@XZ ; std::_Compressed_pair<std::_Wrap_alloc<std::allocator<char> >,std::_String_val<std::_Simple_types<char> >,1>::_Get_first
PUBLIC	?_Get_second@?$_Compressed_pair@U?$_Wrap_alloc@V?$allocator@D@std@@@std@@V?$_String_val@U?$_Simple_types@D@std@@@2@$00@std@@QEAAAEAV?$_String_val@U?$_Simple_types@D@std@@@2@XZ ; std::_Compressed_pair<std::_Wrap_alloc<std::allocator<char> >,std::_String_val<std::_Simple_types<char> >,1>::_Get_second
PUBLIC	?_Get_second@?$_Compressed_pair@U?$_Wrap_alloc@V?$allocator@D@std@@@std@@V?$_String_val@U?$_Simple_types@D@std@@@2@$00@std@@QEBAAEBV?$_String_val@U?$_Simple_types@D@std@@@2@XZ ; std::_Compressed_pair<std::_Wrap_alloc<std::allocator<char> >,std::_String_val<std::_Simple_types<char> >,1>::_Get_second
PUBLIC	??1?$_Compressed_pair@U?$_Wrap_alloc@V?$allocator@D@std@@@std@@V?$_String_val@U?$_Simple_types@D@std@@@2@$00@std@@QEAA@XZ ; std::_Compressed_pair<std::_Wrap_alloc<std::allocator<char> >,std::_String_val<std::_Simple_types<char> >,1>::~_Compressed_pair<std::_Wrap_alloc<std::allocator<char> >,std::_String_val<std::_Simple_types<char> >,1>
PUBLIC	??1?$_String_alloc@U?$_String_base_types@DV?$allocator@D@std@@@std@@@std@@QEAA@XZ ; std::_String_alloc<std::_String_base_types<char,std::allocator<char> > >::~_String_alloc<std::_String_base_types<char,std::allocator<char> > >
PUBLIC	??0?$basic_string@DU?$char_traits@D@std@@V?$allocator@D@2@@std@@QEAA@AEBV01@@Z ; std::basic_string<char,std::char_traits<char>,std::allocator<char> >::basic_string<char,std::char_traits<char>,std::allocator<char> >
PUBLIC	??0?$basic_string@DU?$char_traits@D@std@@V?$allocator@D@2@@std@@QEAA@XZ ; std::basic_string<char,std::char_traits<char>,std::allocator<char> >::basic_string<char,std::char_traits<char>,std::allocator<char> >
PUBLIC	??0?$basic_string@DU?$char_traits@D@std@@V?$allocator@D@2@@std@@QEAA@PEBD_K@Z ; std::basic_string<char,std::char_traits<char>,std::allocator<char> >::basic_string<char,std::char_traits<char>,std::allocator<char> >
PUBLIC	??0?$basic_string@DU?$char_traits@D@std@@V?$allocator@D@2@@std@@QEAA@PEBD@Z ; std::basic_string<char,std::char_traits<char>,std::allocator<char> >::basic_string<char,std::char_traits<char>,std::allocator<char> >
PUBLIC	??0?$basic_string@DU?$char_traits@D@std@@V?$allocator@D@2@@std@@QEAA@_KD@Z ; std::basic_string<char,std::char_traits<char>,std::allocator<char> >::basic_string<char,std::char_traits<char>,std::allocator<char> >
PUBLIC	??0?$basic_string@DU?$char_traits@D@std@@V?$allocator@D@2@@std@@QEAA@$$QEAV01@@Z ; std::basic_string<char,std::char_traits<char>,std::allocator<char> >::basic_string<char,std::char_traits<char>,std::allocator<char> >
PUBLIC	??4?$basic_string@DU?$char_traits@D@std@@V?$allocator@D@2@@std@@QEAAAEAV01@$$QEAV01@@Z ; std::basic_string<char,std::char_traits<char>,std::allocator<char> >::operator=
PUBLIC	?assign@?$basic_string@DU?$char_traits@D@std@@V?$allocator@D@2@@std@@QEAAAEAV12@$$QEAV12@@Z ; std::basic_string<char,std::char_traits<char>,std::allocator<char> >::assign
PUBLIC	?_Assign_rv@?$basic_string@DU?$char_traits@D@std@@V?$allocator@D@2@@std@@QEAAX$$QEAV12@@Z ; std::basic_string<char,std::char_traits<char>,std::allocator<char> >::_Assign_rv
PUBLIC	??1?$basic_string@DU?$char_traits@D@std@@V?$allocator@D@2@@std@@QEAA@XZ ; std::basic_string<char,std::char_traits<char>,std::allocator<char> >::~basic_string<char,std::char_traits<char>,std::allocator<char> >
PUBLIC	??4?$basic_string@DU?$char_traits@D@std@@V?$allocator@D@2@@std@@QEAAAEAV01@AEBV01@@Z ; std::basic_string<char,std::char_traits<char>,std::allocator<char> >::operator=
PUBLIC	??4?$basic_string@DU?$char_traits@D@std@@V?$allocator@D@2@@std@@QEAAAEAV01@PEBD@Z ; std::basic_string<char,std::char_traits<char>,std::allocator<char> >::operator=
PUBLIC	?append@?$basic_string@DU?$char_traits@D@std@@V?$allocator@D@2@@std@@QEAAAEAV12@AEBV12@@Z ; std::basic_string<char,std::char_traits<char>,std::allocator<char> >::append
PUBLIC	?append@?$basic_string@DU?$char_traits@D@std@@V?$allocator@D@2@@std@@QEAAAEAV12@AEBV12@_K1@Z ; std::basic_string<char,std::char_traits<char>,std::allocator<char> >::append
PUBLIC	?append@?$basic_string@DU?$char_traits@D@std@@V?$allocator@D@2@@std@@QEAAAEAV12@PEBD_K@Z ; std::basic_string<char,std::char_traits<char>,std::allocator<char> >::append
PUBLIC	?append@?$basic_string@DU?$char_traits@D@std@@V?$allocator@D@2@@std@@QEAAAEAV12@PEBD@Z ; std::basic_string<char,std::char_traits<char>,std::allocator<char> >::append
PUBLIC	?append@?$basic_string@DU?$char_traits@D@std@@V?$allocator@D@2@@std@@QEAAAEAV12@_KD@Z ; std::basic_string<char,std::char_traits<char>,std::allocator<char> >::append
PUBLIC	?assign@?$basic_string@DU?$char_traits@D@std@@V?$allocator@D@2@@std@@QEAAAEAV12@AEBV12@@Z ; std::basic_string<char,std::char_traits<char>,std::allocator<char> >::assign
PUBLIC	?assign@?$basic_string@DU?$char_traits@D@std@@V?$allocator@D@2@@std@@QEAAAEAV12@AEBV12@_K1@Z ; std::basic_string<char,std::char_traits<char>,std::allocator<char> >::assign
PUBLIC	?assign@?$basic_string@DU?$char_traits@D@std@@V?$allocator@D@2@@std@@QEAAAEAV12@PEBD_K@Z ; std::basic_string<char,std::char_traits<char>,std::allocator<char> >::assign
PUBLIC	?assign@?$basic_string@DU?$char_traits@D@std@@V?$allocator@D@2@@std@@QEAAAEAV12@PEBD@Z ; std::basic_string<char,std::char_traits<char>,std::allocator<char> >::assign
PUBLIC	?assign@?$basic_string@DU?$char_traits@D@std@@V?$allocator@D@2@@std@@QEAAAEAV12@_KD@Z ; std::basic_string<char,std::char_traits<char>,std::allocator<char> >::assign
PUBLIC	?insert@?$basic_string@DU?$char_traits@D@std@@V?$allocator@D@2@@std@@QEAAAEAV12@_K0D@Z ; std::basic_string<char,std::char_traits<char>,std::allocator<char> >::insert
PUBLIC	?erase@?$basic_string@DU?$char_traits@D@std@@V?$allocator@D@2@@std@@QEAAAEAV12@_K@Z ; std::basic_string<char,std::char_traits<char>,std::allocator<char> >::erase
PUBLIC	?erase@?$basic_string@DU?$char_traits@D@std@@V?$allocator@D@2@@std@@QEAAAEAV12@_K0@Z ; std::basic_string<char,std::char_traits<char>,std::allocator<char> >::erase
PUBLIC	?replace@?$basic_string@DU?$char_traits@D@std@@V?$allocator@D@2@@std@@QEAAAEAV12@_K0AEBV12@00@Z ; std::basic_string<char,std::char_traits<char>,std::allocator<char> >::replace
PUBLIC	?replace@?$basic_string@DU?$char_traits@D@std@@V?$allocator@D@2@@std@@QEAAAEAV12@_K0PEBD0@Z ; std::basic_string<char,std::char_traits<char>,std::allocator<char> >::replace
PUBLIC	?replace@?$basic_string@DU?$char_traits@D@std@@V?$allocator@D@2@@std@@QEAAAEAV12@V?$_String_const_iterator@V?$_String_val@U?$_Simple_types@D@std@@@std@@@2@0V?$_String_iterator@V?$_String_val@U?$_Simple_types@D@std@@@std@@@2@1@Z ; std::basic_string<char,std::char_traits<char>,std::allocator<char> >::replace
PUBLIC	?begin@?$basic_string@DU?$char_traits@D@std@@V?$allocator@D@2@@std@@QEAA?AV?$_String_iterator@V?$_String_val@U?$_Simple_types@D@std@@@std@@@2@XZ ; std::basic_string<char,std::char_traits<char>,std::allocator<char> >::begin
PUBLIC	?end@?$basic_string@DU?$char_traits@D@std@@V?$allocator@D@2@@std@@QEAA?AV?$_String_iterator@V?$_String_val@U?$_Simple_types@D@std@@@std@@@2@XZ ; std::basic_string<char,std::char_traits<char>,std::allocator<char> >::end
PUBLIC	??A?$basic_string@DU?$char_traits@D@std@@V?$allocator@D@2@@std@@QEAAAEAD_K@Z ; std::basic_string<char,std::char_traits<char>,std::allocator<char> >::operator[]
PUBLIC	??A?$basic_string@DU?$char_traits@D@std@@V?$allocator@D@2@@std@@QEBAAEBD_K@Z ; std::basic_string<char,std::char_traits<char>,std::allocator<char> >::operator[]
PUBLIC	?c_str@?$basic_string@DU?$char_traits@D@std@@V?$allocator@D@2@@std@@QEBAPEBDXZ ; std::basic_string<char,std::char_traits<char>,std::allocator<char> >::c_str
PUBLIC	?size@?$basic_string@DU?$char_traits@D@std@@V?$allocator@D@2@@std@@QEBA_KXZ ; std::basic_string<char,std::char_traits<char>,std::allocator<char> >::size
PUBLIC	?max_size@?$basic_string@DU?$char_traits@D@std@@V?$allocator@D@2@@std@@QEBA_KXZ ; std::basic_string<char,std::char_traits<char>,std::allocator<char> >::max_size
PUBLIC	?resize@?$basic_string@DU?$char_traits@D@std@@V?$allocator@D@2@@std@@QEAAX_K@Z ; std::basic_string<char,std::char_traits<char>,std::allocator<char> >::resize
PUBLIC	?resize@?$basic_string@DU?$char_traits@D@std@@V?$allocator@D@2@@std@@QEAAX_KD@Z ; std::basic_string<char,std::char_traits<char>,std::allocator<char> >::resize
PUBLIC	?empty@?$basic_string@DU?$char_traits@D@std@@V?$allocator@D@2@@std@@QEBA_NXZ ; std::basic_string<char,std::char_traits<char>,std::allocator<char> >::empty
PUBLIC	?_Traits_compare@?$basic_string@DU?$char_traits@D@std@@V?$allocator@D@2@@std@@SAHQEBD_K01@Z ; std::basic_string<char,std::char_traits<char>,std::allocator<char> >::_Traits_compare
PUBLIC	?_Clamp_suffix_size@?$basic_string@DU?$char_traits@D@std@@V?$allocator@D@2@@std@@QEBA_K_K0@Z ; std::basic_string<char,std::char_traits<char>,std::allocator<char> >::_Clamp_suffix_size
PUBLIC	?compare@?$basic_string@DU?$char_traits@D@std@@V?$allocator@D@2@@std@@QEBAHAEBV12@@Z ; std::basic_string<char,std::char_traits<char>,std::allocator<char> >::compare
PUBLIC	?get_allocator@?$basic_string@DU?$char_traits@D@std@@V?$allocator@D@2@@std@@QEBA?AV?$allocator@D@2@XZ ; std::basic_string<char,std::char_traits<char>,std::allocator<char> >::get_allocator
PUBLIC	?_Chassign@?$basic_string@DU?$char_traits@D@std@@V?$allocator@D@2@@std@@QEAAX_K0D@Z ; std::basic_string<char,std::char_traits<char>,std::allocator<char> >::_Chassign
PUBLIC	?_Copy@?$basic_string@DU?$char_traits@D@std@@V?$allocator@D@2@@std@@QEAAX_K0@Z ; std::basic_string<char,std::char_traits<char>,std::allocator<char> >::_Copy
PUBLIC	?_Eos@?$basic_string@DU?$char_traits@D@std@@V?$allocator@D@2@@std@@QEAAX_K@Z ; std::basic_string<char,std::char_traits<char>,std::allocator<char> >::_Eos
PUBLIC	?_Grow@?$basic_string@DU?$char_traits@D@std@@V?$allocator@D@2@@std@@QEAA_N_K_N@Z ; std::basic_string<char,std::char_traits<char>,std::allocator<char> >::_Grow
PUBLIC	?_Inside@?$basic_string@DU?$char_traits@D@std@@V?$allocator@D@2@@std@@QEAA_NPEBD@Z ; std::basic_string<char,std::char_traits<char>,std::allocator<char> >::_Inside
PUBLIC	?_Tidy@?$basic_string@DU?$char_traits@D@std@@V?$allocator@D@2@@std@@QEAAX_N_K@Z ; std::basic_string<char,std::char_traits<char>,std::allocator<char> >::_Tidy
PUBLIC	?_Xlen@?$basic_string@DU?$char_traits@D@std@@V?$allocator@D@2@@std@@QEBAXXZ ; std::basic_string<char,std::char_traits<char>,std::allocator<char> >::_Xlen
PUBLIC	?_Check_offset@?$basic_string@DU?$char_traits@D@std@@V?$allocator@D@2@@std@@QEBAX_K@Z ; std::basic_string<char,std::char_traits<char>,std::allocator<char> >::_Check_offset
PUBLIC	?_Xran@?$basic_string@DU?$char_traits@D@std@@V?$allocator@D@2@@std@@QEBAXXZ ; std::basic_string<char,std::char_traits<char>,std::allocator<char> >::_Xran
PUBLIC	??0runtime_error@std@@QEAA@AEBV?$basic_string@DU?$char_traits@D@std@@V?$allocator@D@2@@1@@Z ; std::runtime_error::runtime_error
PUBLIC	??0runtime_error@std@@QEAA@PEBD@Z		; std::runtime_error::runtime_error
PUBLIC	??1runtime_error@std@@UEAA@XZ			; std::runtime_error::~runtime_error
PUBLIC	??0runtime_error@std@@QEAA@AEBV01@@Z		; std::runtime_error::runtime_error
PUBLIC	??_Gruntime_error@std@@UEAAPEAXI@Z		; std::runtime_error::`scalar deleting destructor'
PUBLIC	??0bad_cast@std@@QEAA@XZ			; std::bad_cast::bad_cast
PUBLIC	??1bad_cast@std@@UEAA@XZ			; std::bad_cast::~bad_cast
PUBLIC	??0bad_cast@std@@QEAA@AEBV01@@Z			; std::bad_cast::bad_cast
PUBLIC	??_Gbad_cast@std@@UEAAPEAXI@Z			; std::bad_cast::`scalar deleting destructor'
PUBLIC	??0_Locinfo@std@@QEAA@PEBD@Z			; std::_Locinfo::_Locinfo
PUBLIC	??1_Locinfo@std@@QEAA@XZ			; std::_Locinfo::~_Locinfo
PUBLIC	?_Getctype@_Locinfo@std@@QEBA?AU_Ctypevec@@XZ	; std::_Locinfo::_Getctype
PUBLIC	?_Getcvt@_Locinfo@std@@QEBA?AU_Cvtvec@@XZ	; std::_Locinfo::_Getcvt
PUBLIC	?_Getlconv@_Locinfo@std@@QEBAPEBUlconv@@XZ	; std::_Locinfo::_Getlconv
PUBLIC	?_Getfalse@_Locinfo@std@@QEBAPEBDXZ		; std::_Locinfo::_Getfalse
PUBLIC	?_Gettrue@_Locinfo@std@@QEBAPEBDXZ		; std::_Locinfo::_Gettrue
PUBLIC	??0?$_Yarn@D@std@@QEAA@XZ			; std::_Yarn<char>::_Yarn<char>
PUBLIC	??1?$_Yarn@D@std@@QEAA@XZ			; std::_Yarn<char>::~_Yarn<char>
PUBLIC	?c_str@?$_Yarn@D@std@@QEBAPEBDXZ		; std::_Yarn<char>::c_str
PUBLIC	?_Tidy@?$_Yarn@D@std@@AEAAXXZ			; std::_Yarn<char>::_Tidy
PUBLIC	??0?$_Yarn@_W@std@@QEAA@XZ			; std::_Yarn<wchar_t>::_Yarn<wchar_t>
PUBLIC	??1?$_Yarn@_W@std@@QEAA@XZ			; std::_Yarn<wchar_t>::~_Yarn<wchar_t>
PUBLIC	?_Tidy@?$_Yarn@_W@std@@AEAAXXZ			; std::_Yarn<wchar_t>::_Tidy
PUBLIC	??1_Facet_base@std@@UEAA@XZ			; std::_Facet_base::~_Facet_base
PUBLIC	??0_Facet_base@std@@QEAA@XZ			; std::_Facet_base::_Facet_base
PUBLIC	??_G_Facet_base@std@@UEAAPEAXI@Z		; std::_Facet_base::`scalar deleting destructor'
PUBLIC	??0id@locale@std@@QEAA@_K@Z			; std::locale::id::id
PUBLIC	??Bid@locale@std@@QEAA_KXZ			; std::locale::id::operator unsigned __int64
PUBLIC	?_Incref@facet@locale@std@@UEAAXXZ		; std::locale::facet::_Incref
PUBLIC	?_Decref@facet@locale@std@@UEAAPEAV_Facet_base@3@XZ ; std::locale::facet::_Decref
PUBLIC	??0facet@locale@std@@IEAA@_K@Z			; std::locale::facet::facet
PUBLIC	??1facet@locale@std@@MEAA@XZ			; std::locale::facet::~facet
PUBLIC	??_Gfacet@locale@std@@MEAAPEAXI@Z		; std::locale::facet::`scalar deleting destructor'
PUBLIC	??0locale@std@@QEAA@AEBV01@@Z			; std::locale::locale
PUBLIC	??0locale@std@@QEAA@XZ				; std::locale::locale
PUBLIC	??1locale@std@@QEAA@XZ				; std::locale::~locale
PUBLIC	?c_str@locale@std@@QEBAPEBDXZ			; std::locale::c_str
PUBLIC	?_Getfacet@locale@std@@QEBAPEBVfacet@12@_K@Z	; std::locale::_Getfacet
PUBLIC	??_Glocale@std@@QEAAPEAXI@Z			; std::locale::`scalar deleting destructor'
PUBLIC	??0ctype_base@std@@QEAA@_K@Z			; std::ctype_base::ctype_base
PUBLIC	??1ctype_base@std@@UEAA@XZ			; std::ctype_base::~ctype_base
PUBLIC	??_Gctype_base@std@@UEAAPEAXI@Z			; std::ctype_base::`scalar deleting destructor'
PUBLIC	?widen@?$ctype@D@std@@QEBADD@Z			; std::ctype<char>::widen
PUBLIC	?widen@?$ctype@D@std@@QEBAPEBDPEBD0PEAD@Z	; std::ctype<char>::widen
PUBLIC	??0?$ctype@D@std@@QEAA@AEBV_Locinfo@1@_K@Z	; std::ctype<char>::ctype<char>
PUBLIC	?_Getcat@?$ctype@D@std@@SA_KPEAPEBVfacet@locale@2@PEBV42@@Z ; std::ctype<char>::_Getcat
PUBLIC	??1?$ctype@D@std@@MEAA@XZ			; std::ctype<char>::~ctype<char>
PUBLIC	?_Init@?$ctype@D@std@@IEAAXAEBV_Locinfo@2@@Z	; std::ctype<char>::_Init
PUBLIC	?_Tidy@?$ctype@D@std@@IEAAXXZ			; std::ctype<char>::_Tidy
PUBLIC	?do_tolower@?$ctype@D@std@@MEBADD@Z		; std::ctype<char>::do_tolower
PUBLIC	?do_tolower@?$ctype@D@std@@MEBAPEBDPEADPEBD@Z	; std::ctype<char>::do_tolower
PUBLIC	?do_toupper@?$ctype@D@std@@MEBADD@Z		; std::ctype<char>::do_toupper
PUBLIC	?do_toupper@?$ctype@D@std@@MEBAPEBDPEADPEBD@Z	; std::ctype<char>::do_toupper
PUBLIC	?do_widen@?$ctype@D@std@@MEBADD@Z		; std::ctype<char>::do_widen
PUBLIC	?do_widen@?$ctype@D@std@@MEBAPEBDPEBD0PEAD@Z	; std::ctype<char>::do_widen
PUBLIC	?do_narrow@?$ctype@D@std@@MEBADDD@Z		; std::ctype<char>::do_narrow
PUBLIC	?do_narrow@?$ctype@D@std@@MEBAPEBDPEBD0DPEAD@Z	; std::ctype<char>::do_narrow
PUBLIC	??_G?$ctype@D@std@@MEAAPEAXI@Z			; std::ctype<char>::`scalar deleting destructor'
PUBLIC	??$use_facet@V?$ctype@D@std@@@std@@YAAEBV?$ctype@D@0@AEBVlocale@0@@Z ; std::use_facet<std::ctype<char> >
PUBLIC	?make_error_code@std@@YA?AVerror_code@1@W4io_errc@1@@Z ; std::make_error_code
PUBLIC	?iostream_category@std@@YAAEBVerror_category@1@XZ ; std::iostream_category
PUBLIC	??0error_category@std@@QEAA@XZ			; std::error_category::error_category
PUBLIC	??1error_category@std@@UEAA@XZ			; std::error_category::~error_category
PUBLIC	?default_error_condition@error_category@std@@UEBA?AVerror_condition@2@H@Z ; std::error_category::default_error_condition
PUBLIC	?equivalent@error_category@std@@UEBA_NHAEBVerror_condition@2@@Z ; std::error_category::equivalent
PUBLIC	?equivalent@error_category@std@@UEBA_NAEBVerror_code@2@H@Z ; std::error_category::equivalent
PUBLIC	??8error_category@std@@QEBA_NAEBV01@@Z		; std::error_category::operator==
PUBLIC	??_Gerror_category@std@@UEAAPEAXI@Z		; std::error_category::`scalar deleting destructor'
PUBLIC	??0error_code@std@@QEAA@HAEBVerror_category@1@@Z ; std::error_code::error_code
PUBLIC	?value@error_code@std@@QEBAHXZ			; std::error_code::value
PUBLIC	?category@error_code@std@@QEBAAEBVerror_category@2@XZ ; std::error_code::category
PUBLIC	?message@error_code@std@@QEBA?AV?$basic_string@DU?$char_traits@D@std@@V?$allocator@D@2@@2@XZ ; std::error_code::message
PUBLIC	??0error_condition@std@@QEAA@HAEBVerror_category@1@@Z ; std::error_condition::error_condition
PUBLIC	?value@error_condition@std@@QEBAHXZ		; std::error_condition::value
PUBLIC	?category@error_condition@std@@QEBAAEBVerror_category@2@XZ ; std::error_condition::category
PUBLIC	??8std@@YA_NAEBVerror_condition@0@0@Z		; std::operator==
PUBLIC	?_Makestr@_System_error@std@@CA?AV?$basic_string@DU?$char_traits@D@std@@V?$allocator@D@2@@2@Verror_code@2@V32@@Z ; std::_System_error::_Makestr
PUBLIC	??0_System_error@std@@IEAA@Verror_code@1@AEBV?$basic_string@DU?$char_traits@D@std@@V?$allocator@D@2@@1@@Z ; std::_System_error::_System_error
PUBLIC	??1_System_error@std@@UEAA@XZ			; std::_System_error::~_System_error
PUBLIC	??0_System_error@std@@QEAA@AEBV01@@Z		; std::_System_error::_System_error
PUBLIC	??_G_System_error@std@@UEAAPEAXI@Z		; std::_System_error::`scalar deleting destructor'
PUBLIC	??0system_error@std@@QEAA@Verror_code@1@PEBD@Z	; std::system_error::system_error
PUBLIC	??1system_error@std@@UEAA@XZ			; std::system_error::~system_error
PUBLIC	??0system_error@std@@QEAA@AEBV01@@Z		; std::system_error::system_error
PUBLIC	??_Gsystem_error@std@@UEAAPEAXI@Z		; std::system_error::`scalar deleting destructor'
PUBLIC	??0_Generic_error_category@std@@QEAA@XZ		; std::_Generic_error_category::_Generic_error_category
PUBLIC	?name@_Generic_error_category@std@@UEBAPEBDXZ	; std::_Generic_error_category::name
PUBLIC	?message@_Generic_error_category@std@@UEBA?AV?$basic_string@DU?$char_traits@D@std@@V?$allocator@D@2@@2@H@Z ; std::_Generic_error_category::message
PUBLIC	??1_Generic_error_category@std@@UEAA@XZ		; std::_Generic_error_category::~_Generic_error_category
PUBLIC	??_G_Generic_error_category@std@@UEAAPEAXI@Z	; std::_Generic_error_category::`scalar deleting destructor'
PUBLIC	??0_Iostream_error_category@std@@QEAA@XZ	; std::_Iostream_error_category::_Iostream_error_category
PUBLIC	?name@_Iostream_error_category@std@@UEBAPEBDXZ	; std::_Iostream_error_category::name
PUBLIC	?message@_Iostream_error_category@std@@UEBA?AV?$basic_string@DU?$char_traits@D@std@@V?$allocator@D@2@@2@H@Z ; std::_Iostream_error_category::message
PUBLIC	??1_Iostream_error_category@std@@UEAA@XZ	; std::_Iostream_error_category::~_Iostream_error_category
PUBLIC	??_G_Iostream_error_category@std@@UEAAPEAXI@Z	; std::_Iostream_error_category::`scalar deleting destructor'
PUBLIC	??$_Immortalize@V_Iostream_error_category@std@@@std@@YAAEAV_Iostream_error_category@0@XZ ; std::_Immortalize<std::_Iostream_error_category>
PUBLIC	??0failure@ios_base@std@@QEAA@PEBDAEBVerror_code@2@@Z ; std::ios_base::failure::failure
PUBLIC	??1failure@ios_base@std@@UEAA@XZ		; std::ios_base::failure::~failure
PUBLIC	??0failure@ios_base@std@@QEAA@AEBV012@@Z	; std::ios_base::failure::failure
PUBLIC	??_Gfailure@ios_base@std@@UEAAPEAXI@Z		; std::ios_base::failure::`scalar deleting destructor'
PUBLIC	?clear@ios_base@std@@QEAAXH_N@Z			; std::ios_base::clear
PUBLIC	?clear@ios_base@std@@QEAAXH@Z			; std::ios_base::clear
PUBLIC	?rdstate@ios_base@std@@QEBAHXZ			; std::ios_base::rdstate
PUBLIC	?good@ios_base@std@@QEBA_NXZ			; std::ios_base::good
PUBLIC	?flags@ios_base@std@@QEBAHXZ			; std::ios_base::flags
PUBLIC	?precision@ios_base@std@@QEBA_JXZ		; std::ios_base::precision
PUBLIC	?width@ios_base@std@@QEBA_JXZ			; std::ios_base::width
PUBLIC	?width@ios_base@std@@QEAA_J_J@Z			; std::ios_base::width
PUBLIC	?getloc@ios_base@std@@QEBA?AVlocale@2@XZ	; std::ios_base::getloc
PUBLIC	??1ios_base@std@@UEAA@XZ			; std::ios_base::~ios_base
PUBLIC	??0ios_base@std@@IEAA@XZ			; std::ios_base::ios_base
PUBLIC	?_Init@ios_base@std@@IEAAXXZ			; std::ios_base::_Init
PUBLIC	??_Gios_base@std@@UEAAPEAXI@Z			; std::ios_base::`scalar deleting destructor'
PUBLIC	??0RtAudioError@@QEAA@AEBV?$basic_string@DU?$char_traits@D@std@@V?$allocator@D@2@@std@@W4Type@0@@Z ; RtAudioError::RtAudioError
PUBLIC	?printMessage@RtAudioError@@UEBAXXZ		; RtAudioError::printMessage
PUBLIC	?getType@RtAudioError@@UEBAAEBW4Type@1@XZ	; RtAudioError::getType
PUBLIC	?getMessage@RtAudioError@@UEBA?BV?$basic_string@DU?$char_traits@D@std@@V?$allocator@D@2@@std@@XZ ; RtAudioError::getMessage
PUBLIC	??1RtAudioError@@UEAA@XZ			; RtAudioError::~RtAudioError
PUBLIC	??0RtAudioError@@QEAA@AEBV0@@Z			; RtAudioError::RtAudioError
PUBLIC	??_GRtAudioError@@UEAAPEAXI@Z			; RtAudioError::`scalar deleting destructor'
PUBLIC	??1?$basic_ios@DU?$char_traits@D@std@@@std@@UEAA@XZ ; std::basic_ios<char,std::char_traits<char> >::~basic_ios<char,std::char_traits<char> >
PUBLIC	?clear@?$basic_ios@DU?$char_traits@D@std@@@std@@QEAAXH_N@Z ; std::basic_ios<char,std::char_traits<char> >::clear
PUBLIC	?setstate@?$basic_ios@DU?$char_traits@D@std@@@std@@QEAAXH_N@Z ; std::basic_ios<char,std::char_traits<char> >::setstate
PUBLIC	?tie@?$basic_ios@DU?$char_traits@D@std@@@std@@QEBAPEAV?$basic_ostream@DU?$char_traits@D@std@@@2@XZ ; std::basic_ios<char,std::char_traits<char> >::tie
PUBLIC	?rdbuf@?$basic_ios@DU?$char_traits@D@std@@@std@@QEBAPEAV?$basic_streambuf@DU?$char_traits@D@std@@@2@XZ ; std::basic_ios<char,std::char_traits<char> >::rdbuf
PUBLIC	?fill@?$basic_ios@DU?$char_traits@D@std@@@std@@QEBADXZ ; std::basic_ios<char,std::char_traits<char> >::fill
PUBLIC	?widen@?$basic_ios@DU?$char_traits@D@std@@@std@@QEBADD@Z ; std::basic_ios<char,std::char_traits<char> >::widen
PUBLIC	?init@?$basic_ios@DU?$char_traits@D@std@@@std@@IEAAXPEAV?$basic_streambuf@DU?$char_traits@D@std@@@2@_N@Z ; std::basic_ios<char,std::char_traits<char> >::init
PUBLIC	??0?$basic_ios@DU?$char_traits@D@std@@@std@@IEAA@XZ ; std::basic_ios<char,std::char_traits<char> >::basic_ios<char,std::char_traits<char> >
PUBLIC	??_G?$basic_ios@DU?$char_traits@D@std@@@std@@UEAAPEAXI@Z ; std::basic_ios<char,std::char_traits<char> >::`scalar deleting destructor'
PUBLIC	??0?$basic_ostream@DU?$char_traits@D@std@@@std@@QEAA@PEAV?$basic_streambuf@DU?$char_traits@D@std@@@1@_N@Z ; std::basic_ostream<char,std::char_traits<char> >::basic_ostream<char,std::char_traits<char> >
PUBLIC	??1?$basic_ostream@DU?$char_traits@D@std@@@std@@UEAA@XZ ; std::basic_ostream<char,std::char_traits<char> >::~basic_ostream<char,std::char_traits<char> >
PUBLIC	?_Osfx@?$basic_ostream@DU?$char_traits@D@std@@@std@@QEAAXXZ ; std::basic_ostream<char,std::char_traits<char> >::_Osfx
PUBLIC	??6?$basic_ostream@DU?$char_traits@D@std@@@std@@QEAAAEAV01@P6AAEAV01@AEAV01@@Z@Z ; std::basic_ostream<char,std::char_traits<char> >::operator<<
PUBLIC	??6?$basic_ostream@DU?$char_traits@D@std@@@std@@QEAAAEAV01@I@Z ; std::basic_ostream<char,std::char_traits<char> >::operator<<
PUBLIC	?put@?$basic_ostream@DU?$char_traits@D@std@@@std@@QEAAAEAV12@D@Z ; std::basic_ostream<char,std::char_traits<char> >::put
PUBLIC	?flush@?$basic_ostream@DU?$char_traits@D@std@@@std@@QEAAAEAV12@XZ ; std::basic_ostream<char,std::char_traits<char> >::flush
PUBLIC	??_G?$basic_ostream@DU?$char_traits@D@std@@@std@@UEAAPEAXI@Z ; std::basic_ostream<char,std::char_traits<char> >::`scalar deleting destructor'
PUBLIC	??_D?$basic_ostream@DU?$char_traits@D@std@@@std@@QEAAXXZ ; std::basic_ostream<char,std::char_traits<char> >::`vbase destructor'
PUBLIC	??$?6U?$char_traits@D@std@@@std@@YAAEAV?$basic_ostream@DU?$char_traits@D@std@@@0@AEAV10@PEBD@Z ; std::operator<<<std::char_traits<char> >
PUBLIC	??$?6U?$char_traits@D@std@@@std@@YAAEAV?$basic_ostream@DU?$char_traits@D@std@@@0@AEAV10@D@Z ; std::operator<<<std::char_traits<char> >
PUBLIC	??0?$allocator@I@std@@QEAA@XZ			; std::allocator<unsigned int>::allocator<unsigned int>
PUBLIC	??0?$allocator@I@std@@QEAA@AEBV01@@Z		; std::allocator<unsigned int>::allocator<unsigned int>
PUBLIC	?deallocate@?$allocator@I@std@@QEAAXPEAI_K@Z	; std::allocator<unsigned int>::deallocate
PUBLIC	?allocate@?$allocator@I@std@@QEAAPEAI_K@Z	; std::allocator<unsigned int>::allocate
PUBLIC	?max_size@?$allocator@I@std@@QEBA_KXZ		; std::allocator<unsigned int>::max_size
PUBLIC	?max_size@?$allocator_traits@V?$allocator@I@std@@@std@@SA_KAEBV?$allocator@I@2@@Z ; std::allocator_traits<std::allocator<unsigned int> >::max_size
PUBLIC	??0?$_Wrap_alloc@V?$allocator@I@std@@@std@@QEAA@XZ ; std::_Wrap_alloc<std::allocator<unsigned int> >::_Wrap_alloc<std::allocator<unsigned int> >
PUBLIC	??0?$_Wrap_alloc@V?$allocator@I@std@@@std@@QEAA@$$QEAU01@@Z ; std::_Wrap_alloc<std::allocator<unsigned int> >::_Wrap_alloc<std::allocator<unsigned int> >
PUBLIC	?allocate@?$_Wrap_alloc@V?$allocator@I@std@@@std@@QEAAPEAI_K@Z ; std::_Wrap_alloc<std::allocator<unsigned int> >::allocate
PUBLIC	?deallocate@?$_Wrap_alloc@V?$allocator@I@std@@@std@@QEAAXPEAI_K@Z ; std::_Wrap_alloc<std::allocator<unsigned int> >::deallocate
PUBLIC	?max_size@?$_Wrap_alloc@V?$allocator@I@std@@@std@@QEBA_KU_Nil@2@@Z ; std::_Wrap_alloc<std::allocator<unsigned int> >::max_size
PUBLIC	??0?$_Vector_alloc@U?$_Vec_base_types@IV?$allocator@I@std@@@std@@@std@@QEAA@XZ ; std::_Vector_alloc<std::_Vec_base_types<unsigned int,std::allocator<unsigned int> > >::_Vector_alloc<std::_Vec_base_types<unsigned int,std::allocator<unsigned int> > >
PUBLIC	?_Orphan_all@?$_Vector_alloc@U?$_Vec_base_types@IV?$allocator@I@std@@@std@@@std@@QEAAXXZ ; std::_Vector_alloc<std::_Vec_base_types<unsigned int,std::allocator<unsigned int> > >::_Orphan_all
PUBLIC	?_Swap_all@?$_Vector_alloc@U?$_Vec_base_types@IV?$allocator@I@std@@@std@@@std@@QEAAXAEAV12@@Z ; std::_Vector_alloc<std::_Vec_base_types<unsigned int,std::allocator<unsigned int> > >::_Swap_all
PUBLIC	?_Getal@?$_Vector_alloc@U?$_Vec_base_types@IV?$allocator@I@std@@@std@@@std@@QEAAAEAU?$_Wrap_alloc@V?$allocator@I@std@@@2@XZ ; std::_Vector_alloc<std::_Vec_base_types<unsigned int,std::allocator<unsigned int> > >::_Getal
PUBLIC	?_Getal@?$_Vector_alloc@U?$_Vec_base_types@IV?$allocator@I@std@@@std@@@std@@QEBAAEBU?$_Wrap_alloc@V?$allocator@I@std@@@2@XZ ; std::_Vector_alloc<std::_Vec_base_types<unsigned int,std::allocator<unsigned int> > >::_Getal
PUBLIC	?_Get_data@?$_Vector_alloc@U?$_Vec_base_types@IV?$allocator@I@std@@@std@@@std@@QEAAAEAV?$_Vector_val@U?$_Simple_types@I@std@@@2@XZ ; std::_Vector_alloc<std::_Vec_base_types<unsigned int,std::allocator<unsigned int> > >::_Get_data
PUBLIC	?_Get_data@?$_Vector_alloc@U?$_Vec_base_types@IV?$allocator@I@std@@@std@@@std@@QEBAAEBV?$_Vector_val@U?$_Simple_types@I@std@@@2@XZ ; std::_Vector_alloc<std::_Vec_base_types<unsigned int,std::allocator<unsigned int> > >::_Get_data
PUBLIC	?_Myfirst@?$_Vector_alloc@U?$_Vec_base_types@IV?$allocator@I@std@@@std@@@std@@QEAAAEAPEAIXZ ; std::_Vector_alloc<std::_Vec_base_types<unsigned int,std::allocator<unsigned int> > >::_Myfirst
PUBLIC	?_Myfirst@?$_Vector_alloc@U?$_Vec_base_types@IV?$allocator@I@std@@@std@@@std@@QEBAAEBQEAIXZ ; std::_Vector_alloc<std::_Vec_base_types<unsigned int,std::allocator<unsigned int> > >::_Myfirst
PUBLIC	?_Mylast@?$_Vector_alloc@U?$_Vec_base_types@IV?$allocator@I@std@@@std@@@std@@QEAAAEAPEAIXZ ; std::_Vector_alloc<std::_Vec_base_types<unsigned int,std::allocator<unsigned int> > >::_Mylast
PUBLIC	?_Mylast@?$_Vector_alloc@U?$_Vec_base_types@IV?$allocator@I@std@@@std@@@std@@QEBAAEBQEAIXZ ; std::_Vector_alloc<std::_Vec_base_types<unsigned int,std::allocator<unsigned int> > >::_Mylast
PUBLIC	?_Myend@?$_Vector_alloc@U?$_Vec_base_types@IV?$allocator@I@std@@@std@@@std@@QEAAAEAPEAIXZ ; std::_Vector_alloc<std::_Vec_base_types<unsigned int,std::allocator<unsigned int> > >::_Myend
PUBLIC	?_Myend@?$_Vector_alloc@U?$_Vec_base_types@IV?$allocator@I@std@@@std@@@std@@QEBAAEBQEAIXZ ; std::_Vector_alloc<std::_Vec_base_types<unsigned int,std::allocator<unsigned int> > >::_Myend
PUBLIC	??0?$_Vector_val@U?$_Simple_types@I@std@@@std@@QEAA@XZ ; std::_Vector_val<std::_Simple_types<unsigned int> >::_Vector_val<std::_Simple_types<unsigned int> >
PUBLIC	?_Get_first@?$_Compressed_pair@U?$_Wrap_alloc@V?$allocator@I@std@@@std@@V?$_Vector_val@U?$_Simple_types@I@std@@@2@$00@std@@QEAAAEAU?$_Wrap_alloc@V?$allocator@I@std@@@2@XZ ; std::_Compressed_pair<std::_Wrap_alloc<std::allocator<unsigned int> >,std::_Vector_val<std::_Simple_types<unsigned int> >,1>::_Get_first
PUBLIC	?_Get_first@?$_Compressed_pair@U?$_Wrap_alloc@V?$allocator@I@std@@@std@@V?$_Vector_val@U?$_Simple_types@I@std@@@2@$00@std@@QEBAAEBU?$_Wrap_alloc@V?$allocator@I@std@@@2@XZ ; std::_Compressed_pair<std::_Wrap_alloc<std::allocator<unsigned int> >,std::_Vector_val<std::_Simple_types<unsigned int> >,1>::_Get_first
PUBLIC	?_Get_second@?$_Compressed_pair@U?$_Wrap_alloc@V?$allocator@I@std@@@std@@V?$_Vector_val@U?$_Simple_types@I@std@@@2@$00@std@@QEAAAEAV?$_Vector_val@U?$_Simple_types@I@std@@@2@XZ ; std::_Compressed_pair<std::_Wrap_alloc<std::allocator<unsigned int> >,std::_Vector_val<std::_Simple_types<unsigned int> >,1>::_Get_second
PUBLIC	?_Get_second@?$_Compressed_pair@U?$_Wrap_alloc@V?$allocator@I@std@@@std@@V?$_Vector_val@U?$_Simple_types@I@std@@@2@$00@std@@QEBAAEBV?$_Vector_val@U?$_Simple_types@I@std@@@2@XZ ; std::_Compressed_pair<std::_Wrap_alloc<std::allocator<unsigned int> >,std::_Vector_val<std::_Simple_types<unsigned int> >,1>::_Get_second
PUBLIC	??0?$vector@IV?$allocator@I@std@@@std@@QEAA@XZ	; std::vector<unsigned int,std::allocator<unsigned int> >::vector<unsigned int,std::allocator<unsigned int> >
PUBLIC	??0?$vector@IV?$allocator@I@std@@@std@@QEAA@$$QEAV01@@Z ; std::vector<unsigned int,std::allocator<unsigned int> >::vector<unsigned int,std::allocator<unsigned int> >
PUBLIC	?_Assign_rv@?$vector@IV?$allocator@I@std@@@std@@QEAAX$$QEAV12@U?$integral_constant@_N$00@2@@Z ; std::vector<unsigned int,std::allocator<unsigned int> >::_Assign_rv
PUBLIC	?push_back@?$vector@IV?$allocator@I@std@@@std@@QEAAX$$QEAI@Z ; std::vector<unsigned int,std::allocator<unsigned int> >::push_back
PUBLIC	??1?$vector@IV?$allocator@I@std@@@std@@QEAA@XZ	; std::vector<unsigned int,std::allocator<unsigned int> >::~vector<unsigned int,std::allocator<unsigned int> >
PUBLIC	?capacity@?$vector@IV?$allocator@I@std@@@std@@QEBA_KXZ ; std::vector<unsigned int,std::allocator<unsigned int> >::capacity
PUBLIC	?_Unused_capacity@?$vector@IV?$allocator@I@std@@@std@@QEBA_KXZ ; std::vector<unsigned int,std::allocator<unsigned int> >::_Unused_capacity
PUBLIC	?begin@?$vector@IV?$allocator@I@std@@@std@@QEAA?AV?$_Vector_iterator@V?$_Vector_val@U?$_Simple_types@I@std@@@std@@@2@XZ ; std::vector<unsigned int,std::allocator<unsigned int> >::begin
PUBLIC	?end@?$vector@IV?$allocator@I@std@@@std@@QEAA?AV?$_Vector_iterator@V?$_Vector_val@U?$_Simple_types@I@std@@@std@@@2@XZ ; std::vector<unsigned int,std::allocator<unsigned int> >::end
PUBLIC	?size@?$vector@IV?$allocator@I@std@@@std@@QEBA_KXZ ; std::vector<unsigned int,std::allocator<unsigned int> >::size
PUBLIC	?max_size@?$vector@IV?$allocator@I@std@@@std@@QEBA_KXZ ; std::vector<unsigned int,std::allocator<unsigned int> >::max_size
PUBLIC	??A?$vector@IV?$allocator@I@std@@@std@@QEAAAEAI_K@Z ; std::vector<unsigned int,std::allocator<unsigned int> >::operator[]
PUBLIC	?push_back@?$vector@IV?$allocator@I@std@@@std@@QEAAXAEBI@Z ; std::vector<unsigned int,std::allocator<unsigned int> >::push_back
PUBLIC	?clear@?$vector@IV?$allocator@I@std@@@std@@QEAAXXZ ; std::vector<unsigned int,std::allocator<unsigned int> >::clear
PUBLIC	?_Destroy@?$vector@IV?$allocator@I@std@@@std@@IEAAXPEAI0@Z ; std::vector<unsigned int,std::allocator<unsigned int> >::_Destroy
PUBLIC	?_Grow_to@?$vector@IV?$allocator@I@std@@@std@@IEBA_K_K@Z ; std::vector<unsigned int,std::allocator<unsigned int> >::_Grow_to
PUBLIC	?_Inside@?$vector@IV?$allocator@I@std@@@std@@IEBA_NPEBI@Z ; std::vector<unsigned int,std::allocator<unsigned int> >::_Inside
PUBLIC	?_Reallocate@?$vector@IV?$allocator@I@std@@@std@@IEAAX_K@Z ; std::vector<unsigned int,std::allocator<unsigned int> >::_Reallocate
PUBLIC	?_Reserve@?$vector@IV?$allocator@I@std@@@std@@IEAAX_K@Z ; std::vector<unsigned int,std::allocator<unsigned int> >::_Reserve
PUBLIC	?_Tidy@?$vector@IV?$allocator@I@std@@@std@@IEAAXXZ ; std::vector<unsigned int,std::allocator<unsigned int> >::_Tidy
PUBLIC	?_Xlen@?$vector@IV?$allocator@I@std@@@std@@IEBAXXZ ; std::vector<unsigned int,std::allocator<unsigned int> >::_Xlen
PUBLIC	?_Orphan_range@?$vector@IV?$allocator@I@std@@@std@@IEBAXPEAI0@Z ; std::vector<unsigned int,std::allocator<unsigned int> >::_Orphan_range
PUBLIC	??0DeviceInfo@RtAudio@@QEAA@XZ			; RtAudio::DeviceInfo::DeviceInfo
PUBLIC	??1DeviceInfo@RtAudio@@QEAA@XZ			; RtAudio::DeviceInfo::~DeviceInfo
PUBLIC	??0DeviceInfo@RtAudio@@QEAA@$$QEAU01@@Z		; RtAudio::DeviceInfo::DeviceInfo
PUBLIC	?getVersion@RtAudio@@SA?AV?$basic_string@DU?$char_traits@D@std@@V?$allocator@D@2@@std@@XZ ; RtAudio::getVersion
PUBLIC	?getCompiledApi@RtAudio@@SAXAEAV?$vector@W4Api@RtAudio@@V?$allocator@W4Api@RtAudio@@@std@@@std@@@Z ; RtAudio::getCompiledApi
PUBLIC	??0RtAudio@@QEAA@W4Api@0@@Z			; RtAudio::RtAudio
PUBLIC	??1RtAudio@@QEAA@XZ				; RtAudio::~RtAudio
PUBLIC	?openStream@RtAudio@@QEAAXPEAUStreamParameters@1@0KIPEAIP6AHPEAX2INI2@Z2PEAUStreamOptions@1@P6AXW4Type@RtAudioError@@AEBV?$basic_string@DU?$char_traits@D@std@@V?$allocator@D@2@@std@@@Z@Z ; RtAudio::openStream
PUBLIC	?openRtApi@RtAudio@@IEAAXW4Api@1@@Z		; RtAudio::openRtApi
PUBLIC	??0CallbackInfo@@QEAA@XZ			; CallbackInfo::CallbackInfo
PUBLIC	??4S24@@QEAAAEAV0@AEBH@Z			; S24::operator=
PUBLIC	?asInt@S24@@QEAAHXZ				; S24::asInt
PUBLIC	??0RtApi@@QEAA@XZ				; RtApi::RtApi
PUBLIC	??1RtApi@@UEAA@XZ				; RtApi::~RtApi
PUBLIC	?getDefaultInputDevice@RtApi@@UEAAIXZ		; RtApi::getDefaultInputDevice
PUBLIC	?getDefaultOutputDevice@RtApi@@UEAAIXZ		; RtApi::getDefaultOutputDevice
PUBLIC	?openStream@RtApi@@QEAAXPEAUStreamParameters@RtAudio@@0KIPEAIP6AHPEAX2INI2@Z2PEAUStreamOptions@3@P6AXW4Type@RtAudioError@@AEBV?$basic_string@DU?$char_traits@D@std@@V?$allocator@D@2@@std@@@Z@Z ; RtApi::openStream
PUBLIC	?closeStream@RtApi@@UEAAXXZ			; RtApi::closeStream
PUBLIC	?getStreamLatency@RtApi@@QEAAJXZ		; RtApi::getStreamLatency
PUBLIC	?getStreamSampleRate@RtApi@@QEAAIXZ		; RtApi::getStreamSampleRate
PUBLIC	?getStreamTime@RtApi@@UEAANXZ			; RtApi::getStreamTime
PUBLIC	?setStreamTime@RtApi@@UEAAXN@Z			; RtApi::setStreamTime
PUBLIC	??0?$allocator@H@std@@QEAA@XZ			; std::allocator<int>::allocator<int>
PUBLIC	?deallocate@?$allocator@H@std@@QEAAXPEAH_K@Z	; std::allocator<int>::deallocate
PUBLIC	?allocate@?$allocator@H@std@@QEAAPEAH_K@Z	; std::allocator<int>::allocate
PUBLIC	?max_size@?$allocator@H@std@@QEBA_KXZ		; std::allocator<int>::max_size
PUBLIC	?max_size@?$allocator_traits@V?$allocator@H@std@@@std@@SA_KAEBV?$allocator@H@2@@Z ; std::allocator_traits<std::allocator<int> >::max_size
PUBLIC	??0?$_Wrap_alloc@V?$allocator@H@std@@@std@@QEAA@XZ ; std::_Wrap_alloc<std::allocator<int> >::_Wrap_alloc<std::allocator<int> >
PUBLIC	?allocate@?$_Wrap_alloc@V?$allocator@H@std@@@std@@QEAAPEAH_K@Z ; std::_Wrap_alloc<std::allocator<int> >::allocate
PUBLIC	?deallocate@?$_Wrap_alloc@V?$allocator@H@std@@@std@@QEAAXPEAH_K@Z ; std::_Wrap_alloc<std::allocator<int> >::deallocate
PUBLIC	?max_size@?$_Wrap_alloc@V?$allocator@H@std@@@std@@QEBA_KU_Nil@2@@Z ; std::_Wrap_alloc<std::allocator<int> >::max_size
PUBLIC	??0?$_Vector_alloc@U?$_Vec_base_types@HV?$allocator@H@std@@@std@@@std@@QEAA@XZ ; std::_Vector_alloc<std::_Vec_base_types<int,std::allocator<int> > >::_Vector_alloc<std::_Vec_base_types<int,std::allocator<int> > >
PUBLIC	?_Orphan_all@?$_Vector_alloc@U?$_Vec_base_types@HV?$allocator@H@std@@@std@@@std@@QEAAXXZ ; std::_Vector_alloc<std::_Vec_base_types<int,std::allocator<int> > >::_Orphan_all
PUBLIC	?_Getal@?$_Vector_alloc@U?$_Vec_base_types@HV?$allocator@H@std@@@std@@@std@@QEAAAEAU?$_Wrap_alloc@V?$allocator@H@std@@@2@XZ ; std::_Vector_alloc<std::_Vec_base_types<int,std::allocator<int> > >::_Getal
PUBLIC	?_Getal@?$_Vector_alloc@U?$_Vec_base_types@HV?$allocator@H@std@@@std@@@std@@QEBAAEBU?$_Wrap_alloc@V?$allocator@H@std@@@2@XZ ; std::_Vector_alloc<std::_Vec_base_types<int,std::allocator<int> > >::_Getal
PUBLIC	?_Get_data@?$_Vector_alloc@U?$_Vec_base_types@HV?$allocator@H@std@@@std@@@std@@QEAAAEAV?$_Vector_val@U?$_Simple_types@H@std@@@2@XZ ; std::_Vector_alloc<std::_Vec_base_types<int,std::allocator<int> > >::_Get_data
PUBLIC	?_Get_data@?$_Vector_alloc@U?$_Vec_base_types@HV?$allocator@H@std@@@std@@@std@@QEBAAEBV?$_Vector_val@U?$_Simple_types@H@std@@@2@XZ ; std::_Vector_alloc<std::_Vec_base_types<int,std::allocator<int> > >::_Get_data
PUBLIC	?_Myfirst@?$_Vector_alloc@U?$_Vec_base_types@HV?$allocator@H@std@@@std@@@std@@QEAAAEAPEAHXZ ; std::_Vector_alloc<std::_Vec_base_types<int,std::allocator<int> > >::_Myfirst
PUBLIC	?_Myfirst@?$_Vector_alloc@U?$_Vec_base_types@HV?$allocator@H@std@@@std@@@std@@QEBAAEBQEAHXZ ; std::_Vector_alloc<std::_Vec_base_types<int,std::allocator<int> > >::_Myfirst
PUBLIC	?_Mylast@?$_Vector_alloc@U?$_Vec_base_types@HV?$allocator@H@std@@@std@@@std@@QEAAAEAPEAHXZ ; std::_Vector_alloc<std::_Vec_base_types<int,std::allocator<int> > >::_Mylast
PUBLIC	?_Mylast@?$_Vector_alloc@U?$_Vec_base_types@HV?$allocator@H@std@@@std@@@std@@QEBAAEBQEAHXZ ; std::_Vector_alloc<std::_Vec_base_types<int,std::allocator<int> > >::_Mylast
PUBLIC	?_Myend@?$_Vector_alloc@U?$_Vec_base_types@HV?$allocator@H@std@@@std@@@std@@QEAAAEAPEAHXZ ; std::_Vector_alloc<std::_Vec_base_types<int,std::allocator<int> > >::_Myend
PUBLIC	?_Myend@?$_Vector_alloc@U?$_Vec_base_types@HV?$allocator@H@std@@@std@@@std@@QEBAAEBQEAHXZ ; std::_Vector_alloc<std::_Vec_base_types<int,std::allocator<int> > >::_Myend
PUBLIC	??0?$_Vector_val@U?$_Simple_types@H@std@@@std@@QEAA@XZ ; std::_Vector_val<std::_Simple_types<int> >::_Vector_val<std::_Simple_types<int> >
PUBLIC	?_Get_first@?$_Compressed_pair@U?$_Wrap_alloc@V?$allocator@H@std@@@std@@V?$_Vector_val@U?$_Simple_types@H@std@@@2@$00@std@@QEAAAEAU?$_Wrap_alloc@V?$allocator@H@std@@@2@XZ ; std::_Compressed_pair<std::_Wrap_alloc<std::allocator<int> >,std::_Vector_val<std::_Simple_types<int> >,1>::_Get_first
PUBLIC	?_Get_first@?$_Compressed_pair@U?$_Wrap_alloc@V?$allocator@H@std@@@std@@V?$_Vector_val@U?$_Simple_types@H@std@@@2@$00@std@@QEBAAEBU?$_Wrap_alloc@V?$allocator@H@std@@@2@XZ ; std::_Compressed_pair<std::_Wrap_alloc<std::allocator<int> >,std::_Vector_val<std::_Simple_types<int> >,1>::_Get_first
PUBLIC	?_Get_second@?$_Compressed_pair@U?$_Wrap_alloc@V?$allocator@H@std@@@std@@V?$_Vector_val@U?$_Simple_types@H@std@@@2@$00@std@@QEAAAEAV?$_Vector_val@U?$_Simple_types@H@std@@@2@XZ ; std::_Compressed_pair<std::_Wrap_alloc<std::allocator<int> >,std::_Vector_val<std::_Simple_types<int> >,1>::_Get_second
PUBLIC	?_Get_second@?$_Compressed_pair@U?$_Wrap_alloc@V?$allocator@H@std@@@std@@V?$_Vector_val@U?$_Simple_types@H@std@@@2@$00@std@@QEBAAEBV?$_Vector_val@U?$_Simple_types@H@std@@@2@XZ ; std::_Compressed_pair<std::_Wrap_alloc<std::allocator<int> >,std::_Vector_val<std::_Simple_types<int> >,1>::_Get_second
PUBLIC	??0?$vector@HV?$allocator@H@std@@@std@@QEAA@XZ	; std::vector<int,std::allocator<int> >::vector<int,std::allocator<int> >
PUBLIC	?push_back@?$vector@HV?$allocator@H@std@@@std@@QEAAX$$QEAH@Z ; std::vector<int,std::allocator<int> >::push_back
PUBLIC	??1?$vector@HV?$allocator@H@std@@@std@@QEAA@XZ	; std::vector<int,std::allocator<int> >::~vector<int,std::allocator<int> >
PUBLIC	?capacity@?$vector@HV?$allocator@H@std@@@std@@QEBA_KXZ ; std::vector<int,std::allocator<int> >::capacity
PUBLIC	?_Unused_capacity@?$vector@HV?$allocator@H@std@@@std@@QEBA_KXZ ; std::vector<int,std::allocator<int> >::_Unused_capacity
PUBLIC	?size@?$vector@HV?$allocator@H@std@@@std@@QEBA_KXZ ; std::vector<int,std::allocator<int> >::size
PUBLIC	?max_size@?$vector@HV?$allocator@H@std@@@std@@QEBA_KXZ ; std::vector<int,std::allocator<int> >::max_size
PUBLIC	??A?$vector@HV?$allocator@H@std@@@std@@QEAAAEAH_K@Z ; std::vector<int,std::allocator<int> >::operator[]
PUBLIC	?push_back@?$vector@HV?$allocator@H@std@@@std@@QEAAXAEBH@Z ; std::vector<int,std::allocator<int> >::push_back
PUBLIC	?clear@?$vector@HV?$allocator@H@std@@@std@@QEAAXXZ ; std::vector<int,std::allocator<int> >::clear
PUBLIC	?_Destroy@?$vector@HV?$allocator@H@std@@@std@@IEAAXPEAH0@Z ; std::vector<int,std::allocator<int> >::_Destroy
PUBLIC	?_Grow_to@?$vector@HV?$allocator@H@std@@@std@@IEBA_K_K@Z ; std::vector<int,std::allocator<int> >::_Grow_to
PUBLIC	?_Inside@?$vector@HV?$allocator@H@std@@@std@@IEBA_NPEBH@Z ; std::vector<int,std::allocator<int> >::_Inside
PUBLIC	?_Reallocate@?$vector@HV?$allocator@H@std@@@std@@IEAAX_K@Z ; std::vector<int,std::allocator<int> >::_Reallocate
PUBLIC	?_Reserve@?$vector@HV?$allocator@H@std@@@std@@IEAAX_K@Z ; std::vector<int,std::allocator<int> >::_Reserve
PUBLIC	?_Tidy@?$vector@HV?$allocator@H@std@@@std@@IEAAXXZ ; std::vector<int,std::allocator<int> >::_Tidy
PUBLIC	?_Xlen@?$vector@HV?$allocator@H@std@@@std@@IEBAXXZ ; std::vector<int,std::allocator<int> >::_Xlen
PUBLIC	?_Orphan_range@?$vector@HV?$allocator@H@std@@@std@@IEBAXPEAH0@Z ; std::vector<int,std::allocator<int> >::_Orphan_range
PUBLIC	??0ConvertInfo@RtApi@@QEAA@XZ			; RtApi::ConvertInfo::ConvertInfo
PUBLIC	??1ConvertInfo@RtApi@@QEAA@XZ			; RtApi::ConvertInfo::~ConvertInfo
PUBLIC	??0RtApiStream@RtApi@@QEAA@XZ			; RtApi::RtApiStream::RtApiStream
PUBLIC	??1RtApiStream@RtApi@@QEAA@XZ			; RtApi::RtApiStream::~RtApiStream
PUBLIC	??0?$basic_ostringstream@DU?$char_traits@D@std@@V?$allocator@D@2@@std@@QEAA@H@Z ; std::basic_ostringstream<char,std::char_traits<char>,std::allocator<char> >::basic_ostringstream<char,std::char_traits<char>,std::allocator<char> >
PUBLIC	??1?$basic_ostringstream@DU?$char_traits@D@std@@V?$allocator@D@2@@std@@UEAA@XZ ; std::basic_ostringstream<char,std::char_traits<char>,std::allocator<char> >::~basic_ostringstream<char,std::char_traits<char>,std::allocator<char> >
PUBLIC	?str@?$basic_ostringstream@DU?$char_traits@D@std@@V?$allocator@D@2@@std@@QEBA?AV?$basic_string@DU?$char_traits@D@std@@V?$allocator@D@2@@2@XZ ; std::basic_ostringstream<char,std::char_traits<char>,std::allocator<char> >::str
PUBLIC	?str@?$basic_ostringstream@DU?$char_traits@D@std@@V?$allocator@D@2@@std@@QEAAXAEBV?$basic_string@DU?$char_traits@D@std@@V?$allocator@D@2@@2@@Z ; std::basic_ostringstream<char,std::char_traits<char>,std::allocator<char> >::str
PUBLIC	??0?$basic_streambuf@DU?$char_traits@D@std@@@std@@IEAA@XZ ; std::basic_streambuf<char,std::char_traits<char> >::basic_streambuf<char,std::char_traits<char> >
PUBLIC	??1?$basic_streambuf@DU?$char_traits@D@std@@@std@@UEAA@XZ ; std::basic_streambuf<char,std::char_traits<char> >::~basic_streambuf<char,std::char_traits<char> >
PUBLIC	?pubsync@?$basic_streambuf@DU?$char_traits@D@std@@@std@@QEAAHXZ ; std::basic_streambuf<char,std::char_traits<char> >::pubsync
PUBLIC	?sputc@?$basic_streambuf@DU?$char_traits@D@std@@@std@@QEAAHD@Z ; std::basic_streambuf<char,std::char_traits<char> >::sputc
PUBLIC	?sputn@?$basic_streambuf@DU?$char_traits@D@std@@@std@@QEAA_JPEBD_J@Z ; std::basic_streambuf<char,std::char_traits<char> >::sputn
PUBLIC	?_Lock@?$basic_streambuf@DU?$char_traits@D@std@@@std@@UEAAXXZ ; std::basic_streambuf<char,std::char_traits<char> >::_Lock
PUBLIC	?_Unlock@?$basic_streambuf@DU?$char_traits@D@std@@@std@@UEAAXXZ ; std::basic_streambuf<char,std::char_traits<char> >::_Unlock
PUBLIC	?eback@?$basic_streambuf@DU?$char_traits@D@std@@@std@@IEBAPEADXZ ; std::basic_streambuf<char,std::char_traits<char> >::eback
PUBLIC	?gptr@?$basic_streambuf@DU?$char_traits@D@std@@@std@@IEBAPEADXZ ; std::basic_streambuf<char,std::char_traits<char> >::gptr
PUBLIC	?pbase@?$basic_streambuf@DU?$char_traits@D@std@@@std@@IEBAPEADXZ ; std::basic_streambuf<char,std::char_traits<char> >::pbase
PUBLIC	?pptr@?$basic_streambuf@DU?$char_traits@D@std@@@std@@IEBAPEADXZ ; std::basic_streambuf<char,std::char_traits<char> >::pptr
PUBLIC	?egptr@?$basic_streambuf@DU?$char_traits@D@std@@@std@@IEBAPEADXZ ; std::basic_streambuf<char,std::char_traits<char> >::egptr
PUBLIC	?gbump@?$basic_streambuf@DU?$char_traits@D@std@@@std@@IEAAXH@Z ; std::basic_streambuf<char,std::char_traits<char> >::gbump
PUBLIC	?setg@?$basic_streambuf@DU?$char_traits@D@std@@@std@@IEAAXPEAD00@Z ; std::basic_streambuf<char,std::char_traits<char> >::setg
PUBLIC	?epptr@?$basic_streambuf@DU?$char_traits@D@std@@@std@@IEBAPEADXZ ; std::basic_streambuf<char,std::char_traits<char> >::epptr
PUBLIC	?_Gninc@?$basic_streambuf@DU?$char_traits@D@std@@@std@@IEAAPEADXZ ; std::basic_streambuf<char,std::char_traits<char> >::_Gninc
PUBLIC	?_Gnavail@?$basic_streambuf@DU?$char_traits@D@std@@@std@@IEBA_JXZ ; std::basic_streambuf<char,std::char_traits<char> >::_Gnavail
PUBLIC	?pbump@?$basic_streambuf@DU?$char_traits@D@std@@@std@@IEAAXH@Z ; std::basic_streambuf<char,std::char_traits<char> >::pbump
PUBLIC	?setp@?$basic_streambuf@DU?$char_traits@D@std@@@std@@IEAAXPEAD0@Z ; std::basic_streambuf<char,std::char_traits<char> >::setp
PUBLIC	?setp@?$basic_streambuf@DU?$char_traits@D@std@@@std@@IEAAXPEAD00@Z ; std::basic_streambuf<char,std::char_traits<char> >::setp
PUBLIC	?_Pninc@?$basic_streambuf@DU?$char_traits@D@std@@@std@@IEAAPEADXZ ; std::basic_streambuf<char,std::char_traits<char> >::_Pninc
PUBLIC	?_Pnavail@?$basic_streambuf@DU?$char_traits@D@std@@@std@@IEBA_JXZ ; std::basic_streambuf<char,std::char_traits<char> >::_Pnavail
PUBLIC	?_Init@?$basic_streambuf@DU?$char_traits@D@std@@@std@@IEAAXXZ ; std::basic_streambuf<char,std::char_traits<char> >::_Init
PUBLIC	?overflow@?$basic_streambuf@DU?$char_traits@D@std@@@std@@MEAAHH@Z ; std::basic_streambuf<char,std::char_traits<char> >::overflow
PUBLIC	?pbackfail@?$basic_streambuf@DU?$char_traits@D@std@@@std@@MEAAHH@Z ; std::basic_streambuf<char,std::char_traits<char> >::pbackfail
PUBLIC	?showmanyc@?$basic_streambuf@DU?$char_traits@D@std@@@std@@MEAA_JXZ ; std::basic_streambuf<char,std::char_traits<char> >::showmanyc
PUBLIC	?underflow@?$basic_streambuf@DU?$char_traits@D@std@@@std@@MEAAHXZ ; std::basic_streambuf<char,std::char_traits<char> >::underflow
PUBLIC	?uflow@?$basic_streambuf@DU?$char_traits@D@std@@@std@@MEAAHXZ ; std::basic_streambuf<char,std::char_traits<char> >::uflow
PUBLIC	?xsgetn@?$basic_streambuf@DU?$char_traits@D@std@@@std@@MEAA_JPEAD_J@Z ; std::basic_streambuf<char,std::char_traits<char> >::xsgetn
PUBLIC	?xsputn@?$basic_streambuf@DU?$char_traits@D@std@@@std@@MEAA_JPEBD_J@Z ; std::basic_streambuf<char,std::char_traits<char> >::xsputn
PUBLIC	?seekoff@?$basic_streambuf@DU?$char_traits@D@std@@@std@@MEAA?AV?$fpos@U_Mbstatet@@@2@_JHH@Z ; std::basic_streambuf<char,std::char_traits<char> >::seekoff
PUBLIC	?seekpos@?$basic_streambuf@DU?$char_traits@D@std@@@std@@MEAA?AV?$fpos@U_Mbstatet@@@2@V32@H@Z ; std::basic_streambuf<char,std::char_traits<char> >::seekpos
PUBLIC	?setbuf@?$basic_streambuf@DU?$char_traits@D@std@@@std@@MEAAPEAV12@PEAD_J@Z ; std::basic_streambuf<char,std::char_traits<char> >::setbuf
PUBLIC	?sync@?$basic_streambuf@DU?$char_traits@D@std@@@std@@MEAAHXZ ; std::basic_streambuf<char,std::char_traits<char> >::sync
PUBLIC	?imbue@?$basic_streambuf@DU?$char_traits@D@std@@@std@@MEAAXAEBVlocale@2@@Z ; std::basic_streambuf<char,std::char_traits<char> >::imbue
PUBLIC	??_G?$basic_streambuf@DU?$char_traits@D@std@@@std@@UEAAPEAXI@Z ; std::basic_streambuf<char,std::char_traits<char> >::`scalar deleting destructor'
PUBLIC	??0?$basic_stringbuf@DU?$char_traits@D@std@@V?$allocator@D@2@@std@@QEAA@H@Z ; std::basic_stringbuf<char,std::char_traits<char>,std::allocator<char> >::basic_stringbuf<char,std::char_traits<char>,std::allocator<char> >
PUBLIC	??1?$basic_stringbuf@DU?$char_traits@D@std@@V?$allocator@D@2@@std@@UEAA@XZ ; std::basic_stringbuf<char,std::char_traits<char>,std::allocator<char> >::~basic_stringbuf<char,std::char_traits<char>,std::allocator<char> >
PUBLIC	?str@?$basic_stringbuf@DU?$char_traits@D@std@@V?$allocator@D@2@@std@@QEBA?AV?$basic_string@DU?$char_traits@D@std@@V?$allocator@D@2@@2@XZ ; std::basic_stringbuf<char,std::char_traits<char>,std::allocator<char> >::str
PUBLIC	?str@?$basic_stringbuf@DU?$char_traits@D@std@@V?$allocator@D@2@@std@@QEAAXAEBV?$basic_string@DU?$char_traits@D@std@@V?$allocator@D@2@@2@@Z ; std::basic_stringbuf<char,std::char_traits<char>,std::allocator<char> >::str
PUBLIC	?overflow@?$basic_stringbuf@DU?$char_traits@D@std@@V?$allocator@D@2@@std@@MEAAHH@Z ; std::basic_stringbuf<char,std::char_traits<char>,std::allocator<char> >::overflow
PUBLIC	?pbackfail@?$basic_stringbuf@DU?$char_traits@D@std@@V?$allocator@D@2@@std@@MEAAHH@Z ; std::basic_stringbuf<char,std::char_traits<char>,std::allocator<char> >::pbackfail
PUBLIC	?underflow@?$basic_stringbuf@DU?$char_traits@D@std@@V?$allocator@D@2@@std@@MEAAHXZ ; std::basic_stringbuf<char,std::char_traits<char>,std::allocator<char> >::underflow
PUBLIC	?seekoff@?$basic_stringbuf@DU?$char_traits@D@std@@V?$allocator@D@2@@std@@MEAA?AV?$fpos@U_Mbstatet@@@2@_JHH@Z ; std::basic_stringbuf<char,std::char_traits<char>,std::allocator<char> >::seekoff
PUBLIC	?seekpos@?$basic_stringbuf@DU?$char_traits@D@std@@V?$allocator@D@2@@std@@MEAA?AV?$fpos@U_Mbstatet@@@2@V32@H@Z ; std::basic_stringbuf<char,std::char_traits<char>,std::allocator<char> >::seekpos
PUBLIC	?_Init@?$basic_stringbuf@DU?$char_traits@D@std@@V?$allocator@D@2@@std@@IEAAXPEBD_KH@Z ; std::basic_stringbuf<char,std::char_traits<char>,std::allocator<char> >::_Init
PUBLIC	?_Tidy@?$basic_stringbuf@DU?$char_traits@D@std@@V?$allocator@D@2@@std@@IEAAXXZ ; std::basic_stringbuf<char,std::char_traits<char>,std::allocator<char> >::_Tidy
PUBLIC	?_Getstate@?$basic_stringbuf@DU?$char_traits@D@std@@V?$allocator@D@2@@std@@AEAAHH@Z ; std::basic_stringbuf<char,std::char_traits<char>,std::allocator<char> >::_Getstate
PUBLIC	??_G?$basic_stringbuf@DU?$char_traits@D@std@@V?$allocator@D@2@@std@@UEAAPEAXI@Z ; std::basic_stringbuf<char,std::char_traits<char>,std::allocator<char> >::`scalar deleting destructor'
PUBLIC	??_G?$basic_ostringstream@DU?$char_traits@D@std@@V?$allocator@D@2@@std@@UEAAPEAXI@Z ; std::basic_ostringstream<char,std::char_traits<char>,std::allocator<char> >::`scalar deleting destructor'
PUBLIC	??_D?$basic_ostringstream@DU?$char_traits@D@std@@V?$allocator@D@2@@std@@QEAAXXZ ; std::basic_ostringstream<char,std::char_traits<char>,std::allocator<char> >::`vbase destructor'
PUBLIC	?probeDeviceOpen@RtApi@@MEAA_NIW4StreamMode@1@IIIKPEAIPEAUStreamOptions@RtAudio@@@Z ; RtApi::probeDeviceOpen
PUBLIC	?tickStreamTime@RtApi@@IEAAXXZ			; RtApi::tickStreamTime
PUBLIC	?clearStreamInfo@RtApi@@IEAAXXZ			; RtApi::clearStreamInfo
PUBLIC	?verifyStream@RtApi@@IEAAXXZ			; RtApi::verifyStream
PUBLIC	?error@RtApi@@IEAAXW4Type@RtAudioError@@@Z	; RtApi::error
PUBLIC	?convertBuffer@RtApi@@IEAAXPEAD0AEAUConvertInfo@1@@Z ; RtApi::convertBuffer
PUBLIC	?byteSwapBuffer@RtApi@@IEAAXPEADIK@Z		; RtApi::byteSwapBuffer
PUBLIC	?formatBytes@RtApi@@IEAAIK@Z			; RtApi::formatBytes
PUBLIC	?setConvertInfo@RtApi@@IEAAXW4StreamMode@1@I@Z	; RtApi::setConvertInfo
PUBLIC	??_GRtApi@@UEAAPEAXI@Z				; RtApi::`scalar deleting destructor'
PUBLIC	??0RtApiDs@@QEAA@XZ				; RtApiDs::RtApiDs
PUBLIC	??1RtApiDs@@UEAA@XZ				; RtApiDs::~RtApiDs
PUBLIC	?getCurrentApi@RtApiDs@@UEAA?AW4Api@RtAudio@@XZ	; RtApiDs::getCurrentApi
PUBLIC	?getDeviceCount@RtApiDs@@UEAAIXZ		; RtApiDs::getDeviceCount
PUBLIC	?getDefaultOutputDevice@RtApiDs@@UEAAIXZ	; RtApiDs::getDefaultOutputDevice
PUBLIC	?getDefaultInputDevice@RtApiDs@@UEAAIXZ		; RtApiDs::getDefaultInputDevice
PUBLIC	?getDeviceInfo@RtApiDs@@UEAA?AUDeviceInfo@RtAudio@@I@Z ; RtApiDs::getDeviceInfo
PUBLIC	?closeStream@RtApiDs@@UEAAXXZ			; RtApiDs::closeStream
PUBLIC	?startStream@RtApiDs@@UEAAXXZ			; RtApiDs::startStream
PUBLIC	?stopStream@RtApiDs@@UEAAXXZ			; RtApiDs::stopStream
PUBLIC	?abortStream@RtApiDs@@UEAAXXZ			; RtApiDs::abortStream
PUBLIC	?callbackEvent@RtApiDs@@QEAAXXZ			; RtApiDs::callbackEvent
PUBLIC	??0?$allocator@UDsDevice@@@std@@QEAA@XZ		; std::allocator<DsDevice>::allocator<DsDevice>
PUBLIC	?deallocate@?$allocator@UDsDevice@@@std@@QEAAXPEAUDsDevice@@_K@Z ; std::allocator<DsDevice>::deallocate
PUBLIC	?allocate@?$allocator@UDsDevice@@@std@@QEAAPEAUDsDevice@@_K@Z ; std::allocator<DsDevice>::allocate
PUBLIC	?max_size@?$allocator@UDsDevice@@@std@@QEBA_KXZ	; std::allocator<DsDevice>::max_size
PUBLIC	?max_size@?$allocator_traits@V?$allocator@UDsDevice@@@std@@@std@@SA_KAEBV?$allocator@UDsDevice@@@2@@Z ; std::allocator_traits<std::allocator<DsDevice> >::max_size
PUBLIC	??0?$_Wrap_alloc@V?$allocator@UDsDevice@@@std@@@std@@QEAA@XZ ; std::_Wrap_alloc<std::allocator<DsDevice> >::_Wrap_alloc<std::allocator<DsDevice> >
PUBLIC	?allocate@?$_Wrap_alloc@V?$allocator@UDsDevice@@@std@@@std@@QEAAPEAUDsDevice@@_K@Z ; std::_Wrap_alloc<std::allocator<DsDevice> >::allocate
PUBLIC	?deallocate@?$_Wrap_alloc@V?$allocator@UDsDevice@@@std@@@std@@QEAAXPEAUDsDevice@@_K@Z ; std::_Wrap_alloc<std::allocator<DsDevice> >::deallocate
PUBLIC	?max_size@?$_Wrap_alloc@V?$allocator@UDsDevice@@@std@@@std@@QEBA_KU_Nil@2@@Z ; std::_Wrap_alloc<std::allocator<DsDevice> >::max_size
PUBLIC	??0?$_Vector_alloc@U?$_Vec_base_types@UDsDevice@@V?$allocator@UDsDevice@@@std@@@std@@@std@@QEAA@XZ ; std::_Vector_alloc<std::_Vec_base_types<DsDevice,std::allocator<DsDevice> > >::_Vector_alloc<std::_Vec_base_types<DsDevice,std::allocator<DsDevice> > >
PUBLIC	?_Orphan_all@?$_Vector_alloc@U?$_Vec_base_types@UDsDevice@@V?$allocator@UDsDevice@@@std@@@std@@@std@@QEAAXXZ ; std::_Vector_alloc<std::_Vec_base_types<DsDevice,std::allocator<DsDevice> > >::_Orphan_all
PUBLIC	?_Getal@?$_Vector_alloc@U?$_Vec_base_types@UDsDevice@@V?$allocator@UDsDevice@@@std@@@std@@@std@@QEAAAEAU?$_Wrap_alloc@V?$allocator@UDsDevice@@@std@@@2@XZ ; std::_Vector_alloc<std::_Vec_base_types<DsDevice,std::allocator<DsDevice> > >::_Getal
PUBLIC	?_Getal@?$_Vector_alloc@U?$_Vec_base_types@UDsDevice@@V?$allocator@UDsDevice@@@std@@@std@@@std@@QEBAAEBU?$_Wrap_alloc@V?$allocator@UDsDevice@@@std@@@2@XZ ; std::_Vector_alloc<std::_Vec_base_types<DsDevice,std::allocator<DsDevice> > >::_Getal
PUBLIC	?_Get_data@?$_Vector_alloc@U?$_Vec_base_types@UDsDevice@@V?$allocator@UDsDevice@@@std@@@std@@@std@@QEAAAEAV?$_Vector_val@U?$_Simple_types@UDsDevice@@@std@@@2@XZ ; std::_Vector_alloc<std::_Vec_base_types<DsDevice,std::allocator<DsDevice> > >::_Get_data
PUBLIC	?_Get_data@?$_Vector_alloc@U?$_Vec_base_types@UDsDevice@@V?$allocator@UDsDevice@@@std@@@std@@@std@@QEBAAEBV?$_Vector_val@U?$_Simple_types@UDsDevice@@@std@@@2@XZ ; std::_Vector_alloc<std::_Vec_base_types<DsDevice,std::allocator<DsDevice> > >::_Get_data
PUBLIC	?_Myfirst@?$_Vector_alloc@U?$_Vec_base_types@UDsDevice@@V?$allocator@UDsDevice@@@std@@@std@@@std@@QEAAAEAPEAUDsDevice@@XZ ; std::_Vector_alloc<std::_Vec_base_types<DsDevice,std::allocator<DsDevice> > >::_Myfirst
PUBLIC	?_Myfirst@?$_Vector_alloc@U?$_Vec_base_types@UDsDevice@@V?$allocator@UDsDevice@@@std@@@std@@@std@@QEBAAEBQEAUDsDevice@@XZ ; std::_Vector_alloc<std::_Vec_base_types<DsDevice,std::allocator<DsDevice> > >::_Myfirst
PUBLIC	?_Mylast@?$_Vector_alloc@U?$_Vec_base_types@UDsDevice@@V?$allocator@UDsDevice@@@std@@@std@@@std@@QEAAAEAPEAUDsDevice@@XZ ; std::_Vector_alloc<std::_Vec_base_types<DsDevice,std::allocator<DsDevice> > >::_Mylast
PUBLIC	?_Mylast@?$_Vector_alloc@U?$_Vec_base_types@UDsDevice@@V?$allocator@UDsDevice@@@std@@@std@@@std@@QEBAAEBQEAUDsDevice@@XZ ; std::_Vector_alloc<std::_Vec_base_types<DsDevice,std::allocator<DsDevice> > >::_Mylast
PUBLIC	?_Myend@?$_Vector_alloc@U?$_Vec_base_types@UDsDevice@@V?$allocator@UDsDevice@@@std@@@std@@@std@@QEAAAEAPEAUDsDevice@@XZ ; std::_Vector_alloc<std::_Vec_base_types<DsDevice,std::allocator<DsDevice> > >::_Myend
PUBLIC	?_Myend@?$_Vector_alloc@U?$_Vec_base_types@UDsDevice@@V?$allocator@UDsDevice@@@std@@@std@@@std@@QEBAAEBQEAUDsDevice@@XZ ; std::_Vector_alloc<std::_Vec_base_types<DsDevice,std::allocator<DsDevice> > >::_Myend
PUBLIC	??0?$_Vector_val@U?$_Simple_types@UDsDevice@@@std@@@std@@QEAA@XZ ; std::_Vector_val<std::_Simple_types<DsDevice> >::_Vector_val<std::_Simple_types<DsDevice> >
PUBLIC	?_Get_first@?$_Compressed_pair@U?$_Wrap_alloc@V?$allocator@UDsDevice@@@std@@@std@@V?$_Vector_val@U?$_Simple_types@UDsDevice@@@std@@@2@$00@std@@QEAAAEAU?$_Wrap_alloc@V?$allocator@UDsDevice@@@std@@@2@XZ ; std::_Compressed_pair<std::_Wrap_alloc<std::allocator<DsDevice> >,std::_Vector_val<std::_Simple_types<DsDevice> >,1>::_Get_first
PUBLIC	?_Get_first@?$_Compressed_pair@U?$_Wrap_alloc@V?$allocator@UDsDevice@@@std@@@std@@V?$_Vector_val@U?$_Simple_types@UDsDevice@@@std@@@2@$00@std@@QEBAAEBU?$_Wrap_alloc@V?$allocator@UDsDevice@@@std@@@2@XZ ; std::_Compressed_pair<std::_Wrap_alloc<std::allocator<DsDevice> >,std::_Vector_val<std::_Simple_types<DsDevice> >,1>::_Get_first
PUBLIC	?_Get_second@?$_Compressed_pair@U?$_Wrap_alloc@V?$allocator@UDsDevice@@@std@@@std@@V?$_Vector_val@U?$_Simple_types@UDsDevice@@@std@@@2@$00@std@@QEAAAEAV?$_Vector_val@U?$_Simple_types@UDsDevice@@@std@@@2@XZ ; std::_Compressed_pair<std::_Wrap_alloc<std::allocator<DsDevice> >,std::_Vector_val<std::_Simple_types<DsDevice> >,1>::_Get_second
PUBLIC	?_Get_second@?$_Compressed_pair@U?$_Wrap_alloc@V?$allocator@UDsDevice@@@std@@@std@@V?$_Vector_val@U?$_Simple_types@UDsDevice@@@std@@@2@$00@std@@QEBAAEBV?$_Vector_val@U?$_Simple_types@UDsDevice@@@std@@@2@XZ ; std::_Compressed_pair<std::_Wrap_alloc<std::allocator<DsDevice> >,std::_Vector_val<std::_Simple_types<DsDevice> >,1>::_Get_second
PUBLIC	??0?$vector@UDsDevice@@V?$allocator@UDsDevice@@@std@@@std@@QEAA@XZ ; std::vector<DsDevice,std::allocator<DsDevice> >::vector<DsDevice,std::allocator<DsDevice> >
PUBLIC	??1?$vector@UDsDevice@@V?$allocator@UDsDevice@@@std@@@std@@QEAA@XZ ; std::vector<DsDevice,std::allocator<DsDevice> >::~vector<DsDevice,std::allocator<DsDevice> >
PUBLIC	?capacity@?$vector@UDsDevice@@V?$allocator@UDsDevice@@@std@@@std@@QEBA_KXZ ; std::vector<DsDevice,std::allocator<DsDevice> >::capacity
PUBLIC	?_Unused_capacity@?$vector@UDsDevice@@V?$allocator@UDsDevice@@@std@@@std@@QEBA_KXZ ; std::vector<DsDevice,std::allocator<DsDevice> >::_Unused_capacity
PUBLIC	?begin@?$vector@UDsDevice@@V?$allocator@UDsDevice@@@std@@@std@@QEAA?AV?$_Vector_iterator@V?$_Vector_val@U?$_Simple_types@UDsDevice@@@std@@@std@@@2@XZ ; std::vector<DsDevice,std::allocator<DsDevice> >::begin
PUBLIC	?_Make_iter@?$vector@UDsDevice@@V?$allocator@UDsDevice@@@std@@@std@@QEBA?AV?$_Vector_iterator@V?$_Vector_val@U?$_Simple_types@UDsDevice@@@std@@@std@@@2@V?$_Vector_const_iterator@V?$_Vector_val@U?$_Simple_types@UDsDevice@@@std@@@std@@@2@@Z ; std::vector<DsDevice,std::allocator<DsDevice> >::_Make_iter
PUBLIC	?size@?$vector@UDsDevice@@V?$allocator@UDsDevice@@@std@@@std@@QEBA_KXZ ; std::vector<DsDevice,std::allocator<DsDevice> >::size
PUBLIC	?max_size@?$vector@UDsDevice@@V?$allocator@UDsDevice@@@std@@@std@@QEBA_KXZ ; std::vector<DsDevice,std::allocator<DsDevice> >::max_size
PUBLIC	??A?$vector@UDsDevice@@V?$allocator@UDsDevice@@@std@@@std@@QEAAAEAUDsDevice@@_K@Z ; std::vector<DsDevice,std::allocator<DsDevice> >::operator[]
PUBLIC	?push_back@?$vector@UDsDevice@@V?$allocator@UDsDevice@@@std@@@std@@QEAAXAEBUDsDevice@@@Z ; std::vector<DsDevice,std::allocator<DsDevice> >::push_back
PUBLIC	?erase@?$vector@UDsDevice@@V?$allocator@UDsDevice@@@std@@@std@@QEAA?AV?$_Vector_iterator@V?$_Vector_val@U?$_Simple_types@UDsDevice@@@std@@@std@@@2@V?$_Vector_const_iterator@V?$_Vector_val@U?$_Simple_types@UDsDevice@@@std@@@std@@@2@@Z ; std::vector<DsDevice,std::allocator<DsDevice> >::erase
PUBLIC	?_Destroy@?$vector@UDsDevice@@V?$allocator@UDsDevice@@@std@@@std@@IEAAXPEAUDsDevice@@0@Z ; std::vector<DsDevice,std::allocator<DsDevice> >::_Destroy
PUBLIC	?_Grow_to@?$vector@UDsDevice@@V?$allocator@UDsDevice@@@std@@@std@@IEBA_K_K@Z ; std::vector<DsDevice,std::allocator<DsDevice> >::_Grow_to
PUBLIC	?_Inside@?$vector@UDsDevice@@V?$allocator@UDsDevice@@@std@@@std@@IEBA_NPEBUDsDevice@@@Z ; std::vector<DsDevice,std::allocator<DsDevice> >::_Inside
PUBLIC	?_Reallocate@?$vector@UDsDevice@@V?$allocator@UDsDevice@@@std@@@std@@IEAAX_K@Z ; std::vector<DsDevice,std::allocator<DsDevice> >::_Reallocate
PUBLIC	?_Reserve@?$vector@UDsDevice@@V?$allocator@UDsDevice@@@std@@@std@@IEAAX_K@Z ; std::vector<DsDevice,std::allocator<DsDevice> >::_Reserve
PUBLIC	?_Tidy@?$vector@UDsDevice@@V?$allocator@UDsDevice@@@std@@@std@@IEAAXXZ ; std::vector<DsDevice,std::allocator<DsDevice> >::_Tidy
PUBLIC	?_Xlen@?$vector@UDsDevice@@V?$allocator@UDsDevice@@@std@@@std@@IEBAXXZ ; std::vector<DsDevice,std::allocator<DsDevice> >::_Xlen
PUBLIC	?_Orphan_range@?$vector@UDsDevice@@V?$allocator@UDsDevice@@@std@@@std@@IEBAXPEAUDsDevice@@0@Z ; std::vector<DsDevice,std::allocator<DsDevice> >::_Orphan_range
PUBLIC	?probeDeviceOpen@RtApiDs@@EEAA_NIW4StreamMode@RtApi@@IIIKPEAIPEAUStreamOptions@RtAudio@@@Z ; RtApiDs::probeDeviceOpen
PUBLIC	??_GRtApiDs@@UEAAPEAXI@Z			; RtApiDs::`scalar deleting destructor'
PUBLIC	??0?$allocator@W4Api@RtAudio@@@std@@QEAA@XZ	; std::allocator<enum RtAudio::Api>::allocator<enum RtAudio::Api>
PUBLIC	?deallocate@?$allocator@W4Api@RtAudio@@@std@@QEAAXPEAW4Api@RtAudio@@_K@Z ; std::allocator<enum RtAudio::Api>::deallocate
PUBLIC	?allocate@?$allocator@W4Api@RtAudio@@@std@@QEAAPEAW4Api@RtAudio@@_K@Z ; std::allocator<enum RtAudio::Api>::allocate
PUBLIC	?max_size@?$allocator@W4Api@RtAudio@@@std@@QEBA_KXZ ; std::allocator<enum RtAudio::Api>::max_size
PUBLIC	?max_size@?$allocator_traits@V?$allocator@W4Api@RtAudio@@@std@@@std@@SA_KAEBV?$allocator@W4Api@RtAudio@@@2@@Z ; std::allocator_traits<std::allocator<enum RtAudio::Api> >::max_size
PUBLIC	??0?$_Wrap_alloc@V?$allocator@W4Api@RtAudio@@@std@@@std@@QEAA@XZ ; std::_Wrap_alloc<std::allocator<enum RtAudio::Api> >::_Wrap_alloc<std::allocator<enum RtAudio::Api> >
PUBLIC	?allocate@?$_Wrap_alloc@V?$allocator@W4Api@RtAudio@@@std@@@std@@QEAAPEAW4Api@RtAudio@@_K@Z ; std::_Wrap_alloc<std::allocator<enum RtAudio::Api> >::allocate
PUBLIC	?deallocate@?$_Wrap_alloc@V?$allocator@W4Api@RtAudio@@@std@@@std@@QEAAXPEAW4Api@RtAudio@@_K@Z ; std::_Wrap_alloc<std::allocator<enum RtAudio::Api> >::deallocate
PUBLIC	?max_size@?$_Wrap_alloc@V?$allocator@W4Api@RtAudio@@@std@@@std@@QEBA_KU_Nil@2@@Z ; std::_Wrap_alloc<std::allocator<enum RtAudio::Api> >::max_size
PUBLIC	??0?$_Vector_alloc@U?$_Vec_base_types@W4Api@RtAudio@@V?$allocator@W4Api@RtAudio@@@std@@@std@@@std@@QEAA@XZ ; std::_Vector_alloc<std::_Vec_base_types<enum RtAudio::Api,std::allocator<enum RtAudio::Api> > >::_Vector_alloc<std::_Vec_base_types<enum RtAudio::Api,std::allocator<enum RtAudio::Api> > >
PUBLIC	?_Orphan_all@?$_Vector_alloc@U?$_Vec_base_types@W4Api@RtAudio@@V?$allocator@W4Api@RtAudio@@@std@@@std@@@std@@QEAAXXZ ; std::_Vector_alloc<std::_Vec_base_types<enum RtAudio::Api,std::allocator<enum RtAudio::Api> > >::_Orphan_all
PUBLIC	?_Getal@?$_Vector_alloc@U?$_Vec_base_types@W4Api@RtAudio@@V?$allocator@W4Api@RtAudio@@@std@@@std@@@std@@QEAAAEAU?$_Wrap_alloc@V?$allocator@W4Api@RtAudio@@@std@@@2@XZ ; std::_Vector_alloc<std::_Vec_base_types<enum RtAudio::Api,std::allocator<enum RtAudio::Api> > >::_Getal
PUBLIC	?_Getal@?$_Vector_alloc@U?$_Vec_base_types@W4Api@RtAudio@@V?$allocator@W4Api@RtAudio@@@std@@@std@@@std@@QEBAAEBU?$_Wrap_alloc@V?$allocator@W4Api@RtAudio@@@std@@@2@XZ ; std::_Vector_alloc<std::_Vec_base_types<enum RtAudio::Api,std::allocator<enum RtAudio::Api> > >::_Getal
PUBLIC	?_Get_data@?$_Vector_alloc@U?$_Vec_base_types@W4Api@RtAudio@@V?$allocator@W4Api@RtAudio@@@std@@@std@@@std@@QEAAAEAV?$_Vector_val@U?$_Simple_types@W4Api@RtAudio@@@std@@@2@XZ ; std::_Vector_alloc<std::_Vec_base_types<enum RtAudio::Api,std::allocator<enum RtAudio::Api> > >::_Get_data
PUBLIC	?_Get_data@?$_Vector_alloc@U?$_Vec_base_types@W4Api@RtAudio@@V?$allocator@W4Api@RtAudio@@@std@@@std@@@std@@QEBAAEBV?$_Vector_val@U?$_Simple_types@W4Api@RtAudio@@@std@@@2@XZ ; std::_Vector_alloc<std::_Vec_base_types<enum RtAudio::Api,std::allocator<enum RtAudio::Api> > >::_Get_data
PUBLIC	?_Myfirst@?$_Vector_alloc@U?$_Vec_base_types@W4Api@RtAudio@@V?$allocator@W4Api@RtAudio@@@std@@@std@@@std@@QEAAAEAPEAW4Api@RtAudio@@XZ ; std::_Vector_alloc<std::_Vec_base_types<enum RtAudio::Api,std::allocator<enum RtAudio::Api> > >::_Myfirst
PUBLIC	?_Myfirst@?$_Vector_alloc@U?$_Vec_base_types@W4Api@RtAudio@@V?$allocator@W4Api@RtAudio@@@std@@@std@@@std@@QEBAAEBQEAW4Api@RtAudio@@XZ ; std::_Vector_alloc<std::_Vec_base_types<enum RtAudio::Api,std::allocator<enum RtAudio::Api> > >::_Myfirst
PUBLIC	?_Mylast@?$_Vector_alloc@U?$_Vec_base_types@W4Api@RtAudio@@V?$allocator@W4Api@RtAudio@@@std@@@std@@@std@@QEAAAEAPEAW4Api@RtAudio@@XZ ; std::_Vector_alloc<std::_Vec_base_types<enum RtAudio::Api,std::allocator<enum RtAudio::Api> > >::_Mylast
PUBLIC	?_Mylast@?$_Vector_alloc@U?$_Vec_base_types@W4Api@RtAudio@@V?$allocator@W4Api@RtAudio@@@std@@@std@@@std@@QEBAAEBQEAW4Api@RtAudio@@XZ ; std::_Vector_alloc<std::_Vec_base_types<enum RtAudio::Api,std::allocator<enum RtAudio::Api> > >::_Mylast
PUBLIC	?_Myend@?$_Vector_alloc@U?$_Vec_base_types@W4Api@RtAudio@@V?$allocator@W4Api@RtAudio@@@std@@@std@@@std@@QEAAAEAPEAW4Api@RtAudio@@XZ ; std::_Vector_alloc<std::_Vec_base_types<enum RtAudio::Api,std::allocator<enum RtAudio::Api> > >::_Myend
PUBLIC	?_Myend@?$_Vector_alloc@U?$_Vec_base_types@W4Api@RtAudio@@V?$allocator@W4Api@RtAudio@@@std@@@std@@@std@@QEBAAEBQEAW4Api@RtAudio@@XZ ; std::_Vector_alloc<std::_Vec_base_types<enum RtAudio::Api,std::allocator<enum RtAudio::Api> > >::_Myend
PUBLIC	??0?$_Vector_val@U?$_Simple_types@W4Api@RtAudio@@@std@@@std@@QEAA@XZ ; std::_Vector_val<std::_Simple_types<enum RtAudio::Api> >::_Vector_val<std::_Simple_types<enum RtAudio::Api> >
PUBLIC	?_Get_first@?$_Compressed_pair@U?$_Wrap_alloc@V?$allocator@W4Api@RtAudio@@@std@@@std@@V?$_Vector_val@U?$_Simple_types@W4Api@RtAudio@@@std@@@2@$00@std@@QEAAAEAU?$_Wrap_alloc@V?$allocator@W4Api@RtAudio@@@std@@@2@XZ ; std::_Compressed_pair<std::_Wrap_alloc<std::allocator<enum RtAudio::Api> >,std::_Vector_val<std::_Simple_types<enum RtAudio::Api> >,1>::_Get_first
PUBLIC	?_Get_first@?$_Compressed_pair@U?$_Wrap_alloc@V?$allocator@W4Api@RtAudio@@@std@@@std@@V?$_Vector_val@U?$_Simple_types@W4Api@RtAudio@@@std@@@2@$00@std@@QEBAAEBU?$_Wrap_alloc@V?$allocator@W4Api@RtAudio@@@std@@@2@XZ ; std::_Compressed_pair<std::_Wrap_alloc<std::allocator<enum RtAudio::Api> >,std::_Vector_val<std::_Simple_types<enum RtAudio::Api> >,1>::_Get_first
PUBLIC	?_Get_second@?$_Compressed_pair@U?$_Wrap_alloc@V?$allocator@W4Api@RtAudio@@@std@@@std@@V?$_Vector_val@U?$_Simple_types@W4Api@RtAudio@@@std@@@2@$00@std@@QEAAAEAV?$_Vector_val@U?$_Simple_types@W4Api@RtAudio@@@std@@@2@XZ ; std::_Compressed_pair<std::_Wrap_alloc<std::allocator<enum RtAudio::Api> >,std::_Vector_val<std::_Simple_types<enum RtAudio::Api> >,1>::_Get_second
PUBLIC	?_Get_second@?$_Compressed_pair@U?$_Wrap_alloc@V?$allocator@W4Api@RtAudio@@@std@@@std@@V?$_Vector_val@U?$_Simple_types@W4Api@RtAudio@@@std@@@2@$00@std@@QEBAAEBV?$_Vector_val@U?$_Simple_types@W4Api@RtAudio@@@std@@@2@XZ ; std::_Compressed_pair<std::_Wrap_alloc<std::allocator<enum RtAudio::Api> >,std::_Vector_val<std::_Simple_types<enum RtAudio::Api> >,1>::_Get_second
PUBLIC	??0?$vector@W4Api@RtAudio@@V?$allocator@W4Api@RtAudio@@@std@@@std@@QEAA@XZ ; std::vector<enum RtAudio::Api,std::allocator<enum RtAudio::Api> >::vector<enum RtAudio::Api,std::allocator<enum RtAudio::Api> >
PUBLIC	?push_back@?$vector@W4Api@RtAudio@@V?$allocator@W4Api@RtAudio@@@std@@@std@@QEAAX$$QEAW4Api@RtAudio@@@Z ; std::vector<enum RtAudio::Api,std::allocator<enum RtAudio::Api> >::push_back
PUBLIC	??1?$vector@W4Api@RtAudio@@V?$allocator@W4Api@RtAudio@@@std@@@std@@QEAA@XZ ; std::vector<enum RtAudio::Api,std::allocator<enum RtAudio::Api> >::~vector<enum RtAudio::Api,std::allocator<enum RtAudio::Api> >
PUBLIC	?capacity@?$vector@W4Api@RtAudio@@V?$allocator@W4Api@RtAudio@@@std@@@std@@QEBA_KXZ ; std::vector<enum RtAudio::Api,std::allocator<enum RtAudio::Api> >::capacity
PUBLIC	?_Unused_capacity@?$vector@W4Api@RtAudio@@V?$allocator@W4Api@RtAudio@@@std@@@std@@QEBA_KXZ ; std::vector<enum RtAudio::Api,std::allocator<enum RtAudio::Api> >::_Unused_capacity
PUBLIC	?size@?$vector@W4Api@RtAudio@@V?$allocator@W4Api@RtAudio@@@std@@@std@@QEBA_KXZ ; std::vector<enum RtAudio::Api,std::allocator<enum RtAudio::Api> >::size
PUBLIC	?max_size@?$vector@W4Api@RtAudio@@V?$allocator@W4Api@RtAudio@@@std@@@std@@QEBA_KXZ ; std::vector<enum RtAudio::Api,std::allocator<enum RtAudio::Api> >::max_size
PUBLIC	??A?$vector@W4Api@RtAudio@@V?$allocator@W4Api@RtAudio@@@std@@@std@@QEAAAEAW4Api@RtAudio@@_K@Z ; std::vector<enum RtAudio::Api,std::allocator<enum RtAudio::Api> >::operator[]
PUBLIC	?clear@?$vector@W4Api@RtAudio@@V?$allocator@W4Api@RtAudio@@@std@@@std@@QEAAXXZ ; std::vector<enum RtAudio::Api,std::allocator<enum RtAudio::Api> >::clear
PUBLIC	?_Destroy@?$vector@W4Api@RtAudio@@V?$allocator@W4Api@RtAudio@@@std@@@std@@IEAAXPEAW4Api@RtAudio@@0@Z ; std::vector<enum RtAudio::Api,std::allocator<enum RtAudio::Api> >::_Destroy
PUBLIC	?_Grow_to@?$vector@W4Api@RtAudio@@V?$allocator@W4Api@RtAudio@@@std@@@std@@IEBA_K_K@Z ; std::vector<enum RtAudio::Api,std::allocator<enum RtAudio::Api> >::_Grow_to
PUBLIC	?_Inside@?$vector@W4Api@RtAudio@@V?$allocator@W4Api@RtAudio@@@std@@@std@@IEBA_NPEBW4Api@RtAudio@@@Z ; std::vector<enum RtAudio::Api,std::allocator<enum RtAudio::Api> >::_Inside
PUBLIC	?_Reallocate@?$vector@W4Api@RtAudio@@V?$allocator@W4Api@RtAudio@@@std@@@std@@IEAAX_K@Z ; std::vector<enum RtAudio::Api,std::allocator<enum RtAudio::Api> >::_Reallocate
PUBLIC	?_Reserve@?$vector@W4Api@RtAudio@@V?$allocator@W4Api@RtAudio@@@std@@@std@@IEAAX_K@Z ; std::vector<enum RtAudio::Api,std::allocator<enum RtAudio::Api> >::_Reserve
PUBLIC	?_Tidy@?$vector@W4Api@RtAudio@@V?$allocator@W4Api@RtAudio@@@std@@@std@@IEAAXXZ ; std::vector<enum RtAudio::Api,std::allocator<enum RtAudio::Api> >::_Tidy
PUBLIC	?_Xlen@?$vector@W4Api@RtAudio@@V?$allocator@W4Api@RtAudio@@@std@@@std@@IEBAXXZ ; std::vector<enum RtAudio::Api,std::allocator<enum RtAudio::Api> >::_Xlen
PUBLIC	?_Orphan_range@?$vector@W4Api@RtAudio@@V?$allocator@W4Api@RtAudio@@@std@@@std@@IEBAXPEAW4Api@RtAudio@@0@Z ; std::vector<enum RtAudio::Api,std::allocator<enum RtAudio::Api> >::_Orphan_range
PUBLIC	??$endl@DU?$char_traits@D@std@@@std@@YAAEAV?$basic_ostream@DU?$char_traits@D@std@@@0@AEAV10@@Z ; std::endl<char,std::char_traits<char> >
PUBLIC	??0DsHandle@@QEAA@XZ				; DsHandle::DsHandle
PUBLIC	??0DsDevice@@QEAA@XZ				; DsDevice::DsDevice
PUBLIC	??1DsDevice@@QEAA@XZ				; DsDevice::~DsDevice
PUBLIC	??0DsDevice@@QEAA@AEBU0@@Z			; DsDevice::DsDevice
PUBLIC	??0DsDevice@@QEAA@$$QEAU0@@Z			; DsDevice::DsDevice
PUBLIC	??4DsDevice@@QEAAAEAU0@$$QEAU0@@Z		; DsDevice::operator=
PUBLIC	??_GDsDevice@@QEAAPEAXI@Z			; DsDevice::`scalar deleting destructor'
PUBLIC	??0?$_Vector_const_iterator@V?$_Vector_val@U?$_Simple_types@UDsDevice@@@std@@@std@@@std@@QEAA@PEAUDsDevice@@PEBU_Container_base0@1@@Z ; std::_Vector_const_iterator<std::_Vector_val<std::_Simple_types<DsDevice> > >::_Vector_const_iterator<std::_Vector_val<std::_Simple_types<DsDevice> > >
PUBLIC	??Y?$_Vector_const_iterator@V?$_Vector_val@U?$_Simple_types@UDsDevice@@@std@@@std@@@std@@QEAAAEAV01@_J@Z ; std::_Vector_const_iterator<std::_Vector_val<std::_Simple_types<DsDevice> > >::operator+=
PUBLIC	??0?$_Vector_iterator@V?$_Vector_val@U?$_Simple_types@UDsDevice@@@std@@@std@@@std@@QEAA@PEAUDsDevice@@PEBU_Container_base0@1@@Z ; std::_Vector_iterator<std::_Vector_val<std::_Simple_types<DsDevice> > >::_Vector_iterator<std::_Vector_val<std::_Simple_types<DsDevice> > >
PUBLIC	??Y?$_Vector_iterator@V?$_Vector_val@U?$_Simple_types@UDsDevice@@@std@@@std@@@std@@QEAAAEAV01@_J@Z ; std::_Vector_iterator<std::_Vector_val<std::_Simple_types<DsDevice> > >::operator+=
PUBLIC	??H?$_Vector_iterator@V?$_Vector_val@U?$_Simple_types@UDsDevice@@@std@@@std@@@std@@QEBA?AV01@_J@Z ; std::_Vector_iterator<std::_Vector_val<std::_Simple_types<DsDevice> > >::operator+
PUBLIC	??$?6DU?$char_traits@D@std@@V?$allocator@D@1@@std@@YAAEAV?$basic_ostream@DU?$char_traits@D@std@@@0@AEAV10@AEBV?$basic_string@DU?$char_traits@D@std@@V?$allocator@D@2@@0@@Z ; std::operator<<<char,std::char_traits<char>,std::allocator<char> >
PUBLIC	??0?$_Vector_const_iterator@V?$_Vector_val@U?$_Simple_types@I@std@@@std@@@std@@QEAA@PEAIPEBU_Container_base0@1@@Z ; std::_Vector_const_iterator<std::_Vector_val<std::_Simple_types<unsigned int> > >::_Vector_const_iterator<std::_Vector_val<std::_Simple_types<unsigned int> > >
PUBLIC	??0?$_Vector_iterator@V?$_Vector_val@U?$_Simple_types@I@std@@@std@@@std@@QEAA@PEAIPEBU_Container_base0@1@@Z ; std::_Vector_iterator<std::_Vector_val<std::_Simple_types<unsigned int> > >::_Vector_iterator<std::_Vector_val<std::_Simple_types<unsigned int> > >
PUBLIC	?_Unchecked@?$_Vector_iterator@V?$_Vector_val@U?$_Simple_types@I@std@@@std@@@std@@QEBAPEAIXZ ; std::_Vector_iterator<std::_Vector_val<std::_Simple_types<unsigned int> > >::_Unchecked
PUBLIC	??$sort@V?$_Vector_iterator@V?$_Vector_val@U?$_Simple_types@I@std@@@std@@@std@@@std@@YAXV?$_Vector_iterator@V?$_Vector_val@U?$_Simple_types@I@std@@@std@@@0@0@Z ; std::sort<std::_Vector_iterator<std::_Vector_val<std::_Simple_types<unsigned int> > > >
PUBLIC	??$?8DU?$char_traits@D@std@@V?$allocator@D@1@@std@@YA_NAEBV?$basic_string@DU?$char_traits@D@std@@V?$allocator@D@2@@0@0@Z ; std::operator==<char,std::char_traits<char>,std::allocator<char> >
PUBLIC	??$_Move_unchecked@PEAUDsDevice@@PEAU1@@std@@YAPEAUDsDevice@@PEAU1@00@Z ; std::_Move_unchecked<DsDevice * __ptr64,DsDevice * __ptr64>
PUBLIC	??$addressof@$$CBUDsDevice@@@std@@YAPEBUDsDevice@@AEBU1@@Z ; std::addressof<DsDevice const >
PUBLIC	??$_Unfancy@UDsDevice@@@std@@YAPEAUDsDevice@@PEAU1@@Z ; std::_Unfancy<DsDevice>
PUBLIC	??$construct@UDsDevice@@AEAU1@@?$_Wrap_alloc@V?$allocator@UDsDevice@@@std@@@std@@QEAAXPEAUDsDevice@@AEAU2@@Z ; std::_Wrap_alloc<std::allocator<DsDevice> >::construct<DsDevice,DsDevice & __ptr64>
PUBLIC	??$construct@UDsDevice@@AEBU1@@?$_Wrap_alloc@V?$allocator@UDsDevice@@@std@@@std@@QEAAXPEAUDsDevice@@AEBU2@@Z ; std::_Wrap_alloc<std::allocator<DsDevice> >::construct<DsDevice,DsDevice const & __ptr64>
PUBLIC	??$addressof@$$CBH@std@@YAPEBHAEBH@Z		; std::addressof<int const >
PUBLIC	??$_Unfancy@H@std@@YAPEAHPEAH@Z			; std::_Unfancy<int>
PUBLIC	??$construct@HAEAH@?$_Wrap_alloc@V?$allocator@H@std@@@std@@QEAAXPEAHAEAH@Z ; std::_Wrap_alloc<std::allocator<int> >::construct<int,int & __ptr64>
PUBLIC	??$construct@HAEBH@?$_Wrap_alloc@V?$allocator@H@std@@@std@@QEAAXPEAHAEBH@Z ; std::_Wrap_alloc<std::allocator<int> >::construct<int,int const & __ptr64>
PUBLIC	??$addressof@H@std@@YAPEAHAEAH@Z		; std::addressof<int>
PUBLIC	??$forward@H@std@@YA$$QEAHAEAH@Z		; std::forward<int>
PUBLIC	??$construct@HH@?$_Wrap_alloc@V?$allocator@H@std@@@std@@QEAAXPEAH$$QEAH@Z ; std::_Wrap_alloc<std::allocator<int> >::construct<int,int>
PUBLIC	??$addressof@W4Api@RtAudio@@@std@@YAPEAW4Api@RtAudio@@AEAW412@@Z ; std::addressof<enum RtAudio::Api>
PUBLIC	??$_Unfancy@W4Api@RtAudio@@@std@@YAPEAW4Api@RtAudio@@PEAW412@@Z ; std::_Unfancy<enum RtAudio::Api>
PUBLIC	??$forward@W4Api@RtAudio@@@std@@YA$$QEAW4Api@RtAudio@@AEAW412@@Z ; std::forward<enum RtAudio::Api>
PUBLIC	??$construct@W4Api@RtAudio@@W412@@?$_Wrap_alloc@V?$allocator@W4Api@RtAudio@@@std@@@std@@QEAAXPEAW4Api@RtAudio@@$$QEAW423@@Z ; std::_Wrap_alloc<std::allocator<enum RtAudio::Api> >::construct<enum RtAudio::Api,enum RtAudio::Api>
PUBLIC	??$addressof@$$CBI@std@@YAPEBIAEBI@Z		; std::addressof<unsigned int const >
PUBLIC	??$_Unfancy@I@std@@YAPEAIPEAI@Z			; std::_Unfancy<unsigned int>
PUBLIC	??$construct@IAEAI@?$_Wrap_alloc@V?$allocator@I@std@@@std@@QEAAXPEAIAEAI@Z ; std::_Wrap_alloc<std::allocator<unsigned int> >::construct<unsigned int,unsigned int & __ptr64>
PUBLIC	??$construct@IAEBI@?$_Wrap_alloc@V?$allocator@I@std@@@std@@QEAAXPEAIAEBI@Z ; std::_Wrap_alloc<std::allocator<unsigned int> >::construct<unsigned int,unsigned int const & __ptr64>
PUBLIC	??$addressof@I@std@@YAPEAIAEAI@Z		; std::addressof<unsigned int>
PUBLIC	??$forward@I@std@@YA$$QEAIAEAI@Z		; std::forward<unsigned int>
PUBLIC	??$construct@II@?$_Wrap_alloc@V?$allocator@I@std@@@std@@QEAAXPEAI$$QEAI@Z ; std::_Wrap_alloc<std::allocator<unsigned int> >::construct<unsigned int,unsigned int>
PUBLIC	??$move@AEAU?$_Wrap_alloc@V?$allocator@I@std@@@std@@@std@@YA$$QEAU?$_Wrap_alloc@V?$allocator@I@std@@@0@AEAU10@@Z ; std::move<std::_Wrap_alloc<std::allocator<unsigned int> > & __ptr64>
PUBLIC	??$?0U?$_Wrap_alloc@V?$allocator@I@std@@@std@@X@?$_Vector_alloc@U?$_Vec_base_types@IV?$allocator@I@std@@@std@@@std@@QEAA@$$QEAU?$_Wrap_alloc@V?$allocator@I@std@@@1@@Z ; std::_Vector_alloc<std::_Vec_base_types<unsigned int,std::allocator<unsigned int> > >::_Vector_alloc<std::_Vec_base_types<unsigned int,std::allocator<unsigned int> > ><std::_Wrap_alloc<std::allocator<unsigned int> >,void>
PUBLIC	??$forward@V?$vector@IV?$allocator@I@std@@@std@@@std@@YA$$QEAV?$vector@IV?$allocator@I@std@@@0@AEAV10@@Z ; std::forward<std::vector<unsigned int,std::allocator<unsigned int> > >
PUBLIC	??0?$_String_const_iterator@V?$_String_val@U?$_Simple_types@D@std@@@std@@@std@@QEAA@PEBDPEBU_Container_base0@1@@Z ; std::_String_const_iterator<std::_String_val<std::_Simple_types<char> > >::_String_const_iterator<std::_String_val<std::_Simple_types<char> > >
PUBLIC	??D?$_String_const_iterator@V?$_String_val@U?$_Simple_types@D@std@@@std@@@std@@QEBAAEBDXZ ; std::_String_const_iterator<std::_String_val<std::_Simple_types<char> > >::operator*
PUBLIC	??G?$_String_const_iterator@V?$_String_val@U?$_Simple_types@D@std@@@std@@@std@@QEBA_JAEBV01@@Z ; std::_String_const_iterator<std::_String_val<std::_Simple_types<char> > >::operator-
PUBLIC	??8?$_String_const_iterator@V?$_String_val@U?$_Simple_types@D@std@@@std@@@std@@QEBA_NAEBV01@@Z ; std::_String_const_iterator<std::_String_val<std::_Simple_types<char> > >::operator==
PUBLIC	?_Compat@?$_String_const_iterator@V?$_String_val@U?$_Simple_types@D@std@@@std@@@std@@QEBAXAEBV12@@Z ; std::_String_const_iterator<std::_String_val<std::_Simple_types<char> > >::_Compat
PUBLIC	??$?9V?$allocator@D@std@@V01@@std@@YA_NAEBU?$_Wrap_alloc@V?$allocator@D@std@@@0@0@Z ; std::operator!=<std::allocator<char>,std::allocator<char> >
PUBLIC	??$?9DD@std@@YA_NAEBV?$allocator@D@0@0@Z	; std::operator!=<char,char>
PUBLIC	??0?$_String_iterator@V?$_String_val@U?$_Simple_types@D@std@@@std@@@std@@QEAA@PEADPEBU_Container_base0@1@@Z ; std::_String_iterator<std::_String_val<std::_Simple_types<char> > >::_String_iterator<std::_String_val<std::_Simple_types<char> > >
PUBLIC	??D?$_String_iterator@V?$_String_val@U?$_Simple_types@D@std@@@std@@@std@@QEBAAEADXZ ; std::_String_iterator<std::_String_val<std::_Simple_types<char> > >::operator*
PUBLIC	??G?$_String_iterator@V?$_String_val@U?$_Simple_types@D@std@@@std@@@std@@QEBA_JAEBV?$_String_const_iterator@V?$_String_val@U?$_Simple_types@D@std@@@std@@@1@@Z ; std::_String_iterator<std::_String_val<std::_Simple_types<char> > >::operator-
PUBLIC	??$assign@V?$_String_iterator@V?$_String_val@U?$_Simple_types@D@std@@@std@@@std@@@?$basic_string@DU?$char_traits@D@std@@V?$allocator@D@2@@std@@QEAAAEAV01@V?$_String_iterator@V?$_String_val@U?$_Simple_types@D@std@@@std@@@1@0@Z ; std::basic_string<char,std::char_traits<char>,std::allocator<char> >::assign<std::_String_iterator<std::_String_val<std::_Simple_types<char> > > >
PUBLIC	??$forward@V?$basic_string@DU?$char_traits@D@std@@V?$allocator@D@2@@std@@@std@@YA$$QEAV?$basic_string@DU?$char_traits@D@std@@V?$allocator@D@2@@0@AEAV10@@Z ; std::forward<std::basic_string<char,std::char_traits<char>,std::allocator<char> > >
PUBLIC	??$move@AEAU?$_Wrap_alloc@V?$allocator@D@std@@@std@@@std@@YA$$QEAU?$_Wrap_alloc@V?$allocator@D@std@@@0@AEAU10@@Z ; std::move<std::_Wrap_alloc<std::allocator<char> > & __ptr64>
PUBLIC	??$?0U?$_Wrap_alloc@V?$allocator@D@std@@@std@@X@?$_String_alloc@U?$_String_base_types@DV?$allocator@D@std@@@std@@@std@@QEAA@$$QEAU?$_Wrap_alloc@V?$allocator@D@std@@@1@@Z ; std::_String_alloc<std::_String_base_types<char,std::allocator<char> > >::_String_alloc<std::_String_base_types<char,std::allocator<char> > ><std::_Wrap_alloc<std::allocator<char> >,void>
PUBLIC	??0?$fpos@U_Mbstatet@@@std@@QEAA@_J@Z		; std::fpos<_Mbstatet>::fpos<_Mbstatet>
PUBLIC	??B?$fpos@U_Mbstatet@@@std@@QEBA_JXZ		; std::fpos<_Mbstatet>::operator __int64
PUBLIC	??0_Sentry_base@?$basic_ostream@DU?$char_traits@D@std@@@std@@QEAA@AEAV12@@Z ; std::basic_ostream<char,std::char_traits<char> >::_Sentry_base::_Sentry_base
PUBLIC	??1_Sentry_base@?$basic_ostream@DU?$char_traits@D@std@@@std@@QEAA@XZ ; std::basic_ostream<char,std::char_traits<char> >::_Sentry_base::~_Sentry_base
PUBLIC	??0sentry@?$basic_ostream@DU?$char_traits@D@std@@@std@@QEAA@AEAV12@@Z ; std::basic_ostream<char,std::char_traits<char> >::sentry::sentry
PUBLIC	??1sentry@?$basic_ostream@DU?$char_traits@D@std@@@std@@QEAA@XZ ; std::basic_ostream<char,std::char_traits<char> >::sentry::~sentry
PUBLIC	??Bsentry@?$basic_ostream@DU?$char_traits@D@std@@@std@@QEBA_NXZ ; std::basic_ostream<char,std::char_traits<char> >::sentry::operator bool
PUBLIC	??$use_facet@V?$num_put@DV?$ostreambuf_iterator@DU?$char_traits@D@std@@@std@@@std@@@std@@YAAEBV?$num_put@DV?$ostreambuf_iterator@DU?$char_traits@D@std@@@std@@@0@AEBVlocale@0@@Z ; std::use_facet<std::num_put<char,std::ostreambuf_iterator<char,std::char_traits<char> > > >
PUBLIC	?_Getcat@?$num_put@DV?$ostreambuf_iterator@DU?$char_traits@D@std@@@std@@@std@@SA_KPEAPEBVfacet@locale@2@PEBV42@@Z ; std::num_put<char,std::ostreambuf_iterator<char,std::char_traits<char> > >::_Getcat
PUBLIC	??1?$num_put@DV?$ostreambuf_iterator@DU?$char_traits@D@std@@@std@@@std@@MEAA@XZ ; std::num_put<char,std::ostreambuf_iterator<char,std::char_traits<char> > >::~num_put<char,std::ostreambuf_iterator<char,std::char_traits<char> > >
PUBLIC	?_Init@?$num_put@DV?$ostreambuf_iterator@DU?$char_traits@D@std@@@std@@@std@@IEAAXAEBV_Locinfo@2@@Z ; std::num_put<char,std::ostreambuf_iterator<char,std::char_traits<char> > >::_Init
PUBLIC	??0?$num_put@DV?$ostreambuf_iterator@DU?$char_traits@D@std@@@std@@@std@@QEAA@AEBV_Locinfo@1@_K@Z ; std::num_put<char,std::ostreambuf_iterator<char,std::char_traits<char> > >::num_put<char,std::ostreambuf_iterator<char,std::char_traits<char> > >
PUBLIC	?put@?$num_put@DV?$ostreambuf_iterator@DU?$char_traits@D@std@@@std@@@std@@QEBA?AV?$ostreambuf_iterator@DU?$char_traits@D@std@@@2@V32@AEAVios_base@2@DK@Z ; std::num_put<char,std::ostreambuf_iterator<char,std::char_traits<char> > >::put
PUBLIC	?do_put@?$num_put@DV?$ostreambuf_iterator@DU?$char_traits@D@std@@@std@@@std@@MEBA?AV?$ostreambuf_iterator@DU?$char_traits@D@std@@@2@V32@AEAVios_base@2@D_N@Z ; std::num_put<char,std::ostreambuf_iterator<char,std::char_traits<char> > >::do_put
PUBLIC	?do_put@?$num_put@DV?$ostreambuf_iterator@DU?$char_traits@D@std@@@std@@@std@@MEBA?AV?$ostreambuf_iterator@DU?$char_traits@D@std@@@2@V32@AEAVios_base@2@DJ@Z ; std::num_put<char,std::ostreambuf_iterator<char,std::char_traits<char> > >::do_put
PUBLIC	?do_put@?$num_put@DV?$ostreambuf_iterator@DU?$char_traits@D@std@@@std@@@std@@MEBA?AV?$ostreambuf_iterator@DU?$char_traits@D@std@@@2@V32@AEAVios_base@2@DK@Z ; std::num_put<char,std::ostreambuf_iterator<char,std::char_traits<char> > >::do_put
PUBLIC	?do_put@?$num_put@DV?$ostreambuf_iterator@DU?$char_traits@D@std@@@std@@@std@@MEBA?AV?$ostreambuf_iterator@DU?$char_traits@D@std@@@2@V32@AEAVios_base@2@D_J@Z ; std::num_put<char,std::ostreambuf_iterator<char,std::char_traits<char> > >::do_put
PUBLIC	?do_put@?$num_put@DV?$ostreambuf_iterator@DU?$char_traits@D@std@@@std@@@std@@MEBA?AV?$ostreambuf_iterator@DU?$char_traits@D@std@@@2@V32@AEAVios_base@2@D_K@Z ; std::num_put<char,std::ostreambuf_iterator<char,std::char_traits<char> > >::do_put
PUBLIC	?do_put@?$num_put@DV?$ostreambuf_iterator@DU?$char_traits@D@std@@@std@@@std@@MEBA?AV?$ostreambuf_iterator@DU?$char_traits@D@std@@@2@V32@AEAVios_base@2@DN@Z ; std::num_put<char,std::ostreambuf_iterator<char,std::char_traits<char> > >::do_put
PUBLIC	?do_put@?$num_put@DV?$ostreambuf_iterator@DU?$char_traits@D@std@@@std@@@std@@MEBA?AV?$ostreambuf_iterator@DU?$char_traits@D@std@@@2@V32@AEAVios_base@2@DO@Z ; std::num_put<char,std::ostreambuf_iterator<char,std::char_traits<char> > >::do_put
PUBLIC	?do_put@?$num_put@DV?$ostreambuf_iterator@DU?$char_traits@D@std@@@std@@@std@@MEBA?AV?$ostreambuf_iterator@DU?$char_traits@D@std@@@2@V32@AEAVios_base@2@DPEBX@Z ; std::num_put<char,std::ostreambuf_iterator<char,std::char_traits<char> > >::do_put
PUBLIC	?_Ffmt@?$num_put@DV?$ostreambuf_iterator@DU?$char_traits@D@std@@@std@@@std@@AEBAPEADPEADDH@Z ; std::num_put<char,std::ostreambuf_iterator<char,std::char_traits<char> > >::_Ffmt
PUBLIC	?_Fput@?$num_put@DV?$ostreambuf_iterator@DU?$char_traits@D@std@@@std@@@std@@AEBA?AV?$ostreambuf_iterator@DU?$char_traits@D@std@@@2@V32@AEAVios_base@2@DPEBD_K@Z ; std::num_put<char,std::ostreambuf_iterator<char,std::char_traits<char> > >::_Fput
PUBLIC	?_Ifmt@?$num_put@DV?$ostreambuf_iterator@DU?$char_traits@D@std@@@std@@@std@@AEBAPEADPEADPEBDH@Z ; std::num_put<char,std::ostreambuf_iterator<char,std::char_traits<char> > >::_Ifmt
PUBLIC	?_Iput@?$num_put@DV?$ostreambuf_iterator@DU?$char_traits@D@std@@@std@@@std@@AEBA?AV?$ostreambuf_iterator@DU?$char_traits@D@std@@@2@V32@AEAVios_base@2@DPEAD_K@Z ; std::num_put<char,std::ostreambuf_iterator<char,std::char_traits<char> > >::_Iput
PUBLIC	?_Put@?$num_put@DV?$ostreambuf_iterator@DU?$char_traits@D@std@@@std@@@std@@AEBA?AV?$ostreambuf_iterator@DU?$char_traits@D@std@@@2@V32@PEBD_K@Z ; std::num_put<char,std::ostreambuf_iterator<char,std::char_traits<char> > >::_Put
PUBLIC	?_Rep@?$num_put@DV?$ostreambuf_iterator@DU?$char_traits@D@std@@@std@@@std@@AEBA?AV?$ostreambuf_iterator@DU?$char_traits@D@std@@@2@V32@D_K@Z ; std::num_put<char,std::ostreambuf_iterator<char,std::char_traits<char> > >::_Rep
PUBLIC	??_G?$num_put@DV?$ostreambuf_iterator@DU?$char_traits@D@std@@@std@@@std@@MEAAPEAXI@Z ; std::num_put<char,std::ostreambuf_iterator<char,std::char_traits<char> > >::`scalar deleting destructor'
PUBLIC	??0?$ostreambuf_iterator@DU?$char_traits@D@std@@@std@@QEAA@PEAV?$basic_streambuf@DU?$char_traits@D@std@@@1@@Z ; std::ostreambuf_iterator<char,std::char_traits<char> >::ostreambuf_iterator<char,std::char_traits<char> >
PUBLIC	??4?$ostreambuf_iterator@DU?$char_traits@D@std@@@std@@QEAAAEAV01@D@Z ; std::ostreambuf_iterator<char,std::char_traits<char> >::operator=
PUBLIC	??D?$ostreambuf_iterator@DU?$char_traits@D@std@@@std@@QEAAAEAV01@XZ ; std::ostreambuf_iterator<char,std::char_traits<char> >::operator*
PUBLIC	??E?$ostreambuf_iterator@DU?$char_traits@D@std@@@std@@QEAAAEAV01@XZ ; std::ostreambuf_iterator<char,std::char_traits<char> >::operator++
PUBLIC	?failed@?$ostreambuf_iterator@DU?$char_traits@D@std@@@std@@QEBA_NXZ ; std::ostreambuf_iterator<char,std::char_traits<char> >::failed
PUBLIC	??$?0$$V@?$_Compressed_pair@U?$_Wrap_alloc@V?$allocator@W4Api@RtAudio@@@std@@@std@@V?$_Vector_val@U?$_Simple_types@W4Api@RtAudio@@@std@@@2@$00@std@@QEAA@U_Zero_then_variadic_args_t@1@@Z ; std::_Compressed_pair<std::_Wrap_alloc<std::allocator<enum RtAudio::Api> >,std::_Vector_val<std::_Simple_types<enum RtAudio::Api> >,1>::_Compressed_pair<std::_Wrap_alloc<std::allocator<enum RtAudio::Api> >,std::_Vector_val<std::_Simple_types<enum RtAudio::Api> >,1><>
PUBLIC	??$?0$$V@?$_Compressed_pair@U?$_Wrap_alloc@V?$allocator@UDsDevice@@@std@@@std@@V?$_Vector_val@U?$_Simple_types@UDsDevice@@@std@@@2@$00@std@@QEAA@U_Zero_then_variadic_args_t@1@@Z ; std::_Compressed_pair<std::_Wrap_alloc<std::allocator<DsDevice> >,std::_Vector_val<std::_Simple_types<DsDevice> >,1>::_Compressed_pair<std::_Wrap_alloc<std::allocator<DsDevice> >,std::_Vector_val<std::_Simple_types<DsDevice> >,1><>
PUBLIC	??$_Destroy_range@V?$allocator@UDsDevice@@@std@@PEAUDsDevice@@@std@@YAXPEAUDsDevice@@0AEAU?$_Wrap_alloc@V?$allocator@UDsDevice@@@std@@@0@@Z ; std::_Destroy_range<std::allocator<DsDevice>,DsDevice * __ptr64>
PUBLIC	??$?0$$V@?$_Compressed_pair@U?$_Wrap_alloc@V?$allocator@H@std@@@std@@V?$_Vector_val@U?$_Simple_types@H@std@@@2@$00@std@@QEAA@U_Zero_then_variadic_args_t@1@@Z ; std::_Compressed_pair<std::_Wrap_alloc<std::allocator<int> >,std::_Vector_val<std::_Simple_types<int> >,1>::_Compressed_pair<std::_Wrap_alloc<std::allocator<int> >,std::_Vector_val<std::_Simple_types<int> >,1><>
PUBLIC	??$_Destroy_range@V?$allocator@H@std@@PEAH@std@@YAXPEAH0AEAU?$_Wrap_alloc@V?$allocator@H@std@@@0@@Z ; std::_Destroy_range<std::allocator<int>,int * __ptr64>
PUBLIC	??$_Destroy_range@V?$allocator@W4Api@RtAudio@@@std@@PEAW4Api@RtAudio@@@std@@YAXPEAW4Api@RtAudio@@0AEAU?$_Wrap_alloc@V?$allocator@W4Api@RtAudio@@@std@@@0@@Z ; std::_Destroy_range<std::allocator<enum RtAudio::Api>,enum RtAudio::Api * __ptr64>
PUBLIC	??$?0$$V@?$_Compressed_pair@U?$_Wrap_alloc@V?$allocator@I@std@@@std@@V?$_Vector_val@U?$_Simple_types@I@std@@@2@$00@std@@QEAA@U_Zero_then_variadic_args_t@1@@Z ; std::_Compressed_pair<std::_Wrap_alloc<std::allocator<unsigned int> >,std::_Vector_val<std::_Simple_types<unsigned int> >,1>::_Compressed_pair<std::_Wrap_alloc<std::allocator<unsigned int> >,std::_Vector_val<std::_Simple_types<unsigned int> >,1><>
PUBLIC	??$_Destroy_range@V?$allocator@I@std@@PEAI@std@@YAXPEAI0AEAU?$_Wrap_alloc@V?$allocator@I@std@@@0@@Z ; std::_Destroy_range<std::allocator<unsigned int>,unsigned int * __ptr64>
PUBLIC	??$use_facet@V?$numpunct@D@std@@@std@@YAAEBV?$numpunct@D@0@AEBVlocale@0@@Z ; std::use_facet<std::numpunct<char> >
PUBLIC	?decimal_point@?$numpunct@D@std@@QEBADXZ	; std::numpunct<char>::decimal_point
PUBLIC	?thousands_sep@?$numpunct@D@std@@QEBADXZ	; std::numpunct<char>::thousands_sep
PUBLIC	?grouping@?$numpunct@D@std@@QEBA?AV?$basic_string@DU?$char_traits@D@std@@V?$allocator@D@2@@2@XZ ; std::numpunct<char>::grouping
PUBLIC	?falsename@?$numpunct@D@std@@QEBA?AV?$basic_string@DU?$char_traits@D@std@@V?$allocator@D@2@@2@XZ ; std::numpunct<char>::falsename
PUBLIC	?truename@?$numpunct@D@std@@QEBA?AV?$basic_string@DU?$char_traits@D@std@@V?$allocator@D@2@@2@XZ ; std::numpunct<char>::truename
PUBLIC	??0?$numpunct@D@std@@QEAA@AEBV_Locinfo@1@_K_N@Z	; std::numpunct<char>::numpunct<char>
PUBLIC	?_Getcat@?$numpunct@D@std@@SA_KPEAPEBVfacet@locale@2@PEBV42@@Z ; std::numpunct<char>::_Getcat
PUBLIC	??1?$numpunct@D@std@@MEAA@XZ			; std::numpunct<char>::~numpunct<char>
PUBLIC	?_Init@?$numpunct@D@std@@IEAAXAEBV_Locinfo@2@_N@Z ; std::numpunct<char>::_Init
PUBLIC	?do_decimal_point@?$numpunct@D@std@@MEBADXZ	; std::numpunct<char>::do_decimal_point
PUBLIC	?do_thousands_sep@?$numpunct@D@std@@MEBADXZ	; std::numpunct<char>::do_thousands_sep
PUBLIC	?do_grouping@?$numpunct@D@std@@MEBA?AV?$basic_string@DU?$char_traits@D@std@@V?$allocator@D@2@@2@XZ ; std::numpunct<char>::do_grouping
PUBLIC	?do_falsename@?$numpunct@D@std@@MEBA?AV?$basic_string@DU?$char_traits@D@std@@V?$allocator@D@2@@2@XZ ; std::numpunct<char>::do_falsename
PUBLIC	?do_truename@?$numpunct@D@std@@MEBA?AV?$basic_string@DU?$char_traits@D@std@@V?$allocator@D@2@@2@XZ ; std::numpunct<char>::do_truename
PUBLIC	?_Tidy@?$numpunct@D@std@@AEAAXXZ		; std::numpunct<char>::_Tidy
PUBLIC	??_G?$numpunct@D@std@@MEAAPEAXI@Z		; std::numpunct<char>::`scalar deleting destructor'
PUBLIC	??$?0V?$allocator@D@std@@@?$_Wrap_alloc@V?$allocator@D@std@@@std@@QEAA@$$QEAV?$allocator@D@1@@Z ; std::_Wrap_alloc<std::allocator<char> >::_Wrap_alloc<std::allocator<char> ><std::allocator<char> >
PUBLIC	??$_Pocma@U?$_Wrap_alloc@V?$allocator@D@std@@@std@@@std@@YAXAEAU?$_Wrap_alloc@V?$allocator@D@std@@@0@0@Z ; std::_Pocma<std::_Wrap_alloc<std::allocator<char> > >
PUBLIC	??$_Pocca@U?$_Wrap_alloc@V?$allocator@D@std@@@std@@@std@@YAXAEAU?$_Wrap_alloc@V?$allocator@D@std@@@0@AEBU10@@Z ; std::_Pocca<std::_Wrap_alloc<std::allocator<char> > >
PUBLIC	??$?0$$V@?$_Compressed_pair@U?$_Wrap_alloc@V?$allocator@D@std@@@std@@V?$_String_val@U?$_Simple_types@D@std@@@2@$00@std@@QEAA@U_Zero_then_variadic_args_t@1@@Z ; std::_Compressed_pair<std::_Wrap_alloc<std::allocator<char> >,std::_String_val<std::_Simple_types<char> >,1>::_Compressed_pair<std::_Wrap_alloc<std::allocator<char> >,std::_String_val<std::_Simple_types<char> >,1><>
PUBLIC	??$addressof@PEAD@std@@YAPEAPEADAEAPEAD@Z	; std::addressof<char * __ptr64>
PUBLIC	??$destroy@PEAD@?$_Wrap_alloc@V?$allocator@D@std@@@std@@QEAAXPEAPEAD@Z ; std::_Wrap_alloc<std::allocator<char> >::destroy<char * __ptr64>
PUBLIC	??$_Unfancy@D@std@@YAPEADPEAD@Z			; std::_Unfancy<char>
PUBLIC	??$construct@PEADAEAPEAD@?$_Wrap_alloc@V?$allocator@D@std@@@std@@QEAAXPEAPEADAEAPEAD@Z ; std::_Wrap_alloc<std::allocator<char> >::construct<char * __ptr64,char * __ptr64 & __ptr64>
PUBLIC	??$_Umove@PEAUDsDevice@@@?$vector@UDsDevice@@V?$allocator@UDsDevice@@@std@@@std@@IEAAPEAUDsDevice@@PEAU2@00@Z ; std::vector<DsDevice,std::allocator<DsDevice> >::_Umove<DsDevice * __ptr64>
PUBLIC	??$_Umove@PEAH@?$vector@HV?$allocator@H@std@@@std@@IEAAPEAHPEAH00@Z ; std::vector<int,std::allocator<int> >::_Umove<int * __ptr64>
PUBLIC	??$_Umove@PEAW4Api@RtAudio@@@?$vector@W4Api@RtAudio@@V?$allocator@W4Api@RtAudio@@@std@@@std@@IEAAPEAW4Api@RtAudio@@PEAW423@00@Z ; std::vector<enum RtAudio::Api,std::allocator<enum RtAudio::Api> >::_Umove<enum RtAudio::Api * __ptr64>
PUBLIC	??$_Umove@PEAI@?$vector@IV?$allocator@I@std@@@std@@IEAAPEAIPEAI00@Z ; std::vector<unsigned int,std::allocator<unsigned int> >::_Umove<unsigned int * __ptr64>
PUBLIC	?pointer_to@?$pointer_traits@PEAD@std@@SAPEADAEAD@Z ; std::pointer_traits<char * __ptr64>::pointer_to
PUBLIC	??$addressof@D@std@@YAPEADAEAD@Z		; std::addressof<char>
PUBLIC	??0?$_Immortalizer@V_Iostream_error_category@std@@@std@@QEAA@XZ ; std::_Immortalizer<std::_Iostream_error_category>::_Immortalizer<std::_Iostream_error_category>
PUBLIC	??1?$_Immortalizer@V_Iostream_error_category@std@@@std@@QEAA@XZ ; std::_Immortalizer<std::_Iostream_error_category>::~_Immortalizer<std::_Iostream_error_category>
PUBLIC	??__F_Static@?1???$_Immortalize@V_Iostream_error_category@std@@@std@@YAAEAV_Iostream_error_category@0@XZ@YAXXZ ; `std::_Immortalize<std::_Iostream_error_category>'::`2'::`dynamic atexit destructor for '_Static''
PUBLIC	??$sort@V?$_Vector_iterator@V?$_Vector_val@U?$_Simple_types@I@std@@@std@@@std@@U?$less@X@2@@std@@YAXV?$_Vector_iterator@V?$_Vector_val@U?$_Simple_types@I@std@@@std@@@0@0U?$less@X@0@@Z ; std::sort<std::_Vector_iterator<std::_Vector_val<std::_Simple_types<unsigned int> > >,std::less<void> >
PUBLIC	??$_Ptr_move_cat@UDsDevice@@U1@@std@@YA?AU_General_ptr_iterator_tag@0@AEBQEAUDsDevice@@0@Z ; std::_Ptr_move_cat<DsDevice,DsDevice>
PUBLIC	??$_Move_unchecked1@PEAUDsDevice@@PEAU1@@std@@YAPEAUDsDevice@@PEAU1@00U_General_ptr_iterator_tag@0@@Z ; std::_Move_unchecked1<DsDevice * __ptr64,DsDevice * __ptr64>
PUBLIC	??$forward@AEAUDsDevice@@@std@@YAAEAUDsDevice@@AEAU1@@Z ; std::forward<DsDevice & __ptr64>
PUBLIC	??$construct@UDsDevice@@AEAU1@@?$allocator_traits@V?$allocator@UDsDevice@@@std@@@std@@SAXAEAV?$allocator@UDsDevice@@@1@PEAUDsDevice@@AEAU3@@Z ; std::allocator_traits<std::allocator<DsDevice> >::construct<DsDevice,DsDevice & __ptr64>
PUBLIC	??$forward@AEBUDsDevice@@@std@@YAAEBUDsDevice@@AEBU1@@Z ; std::forward<DsDevice const & __ptr64>
PUBLIC	??$construct@UDsDevice@@AEBU1@@?$allocator_traits@V?$allocator@UDsDevice@@@std@@@std@@SAXAEAV?$allocator@UDsDevice@@@1@PEAUDsDevice@@AEBU3@@Z ; std::allocator_traits<std::allocator<DsDevice> >::construct<DsDevice,DsDevice const & __ptr64>
PUBLIC	??$forward@AEAH@std@@YAAEAHAEAH@Z		; std::forward<int & __ptr64>
PUBLIC	??$construct@HAEAH@?$allocator_traits@V?$allocator@H@std@@@std@@SAXAEAV?$allocator@H@1@PEAHAEAH@Z ; std::allocator_traits<std::allocator<int> >::construct<int,int & __ptr64>
PUBLIC	??$forward@AEBH@std@@YAAEBHAEBH@Z		; std::forward<int const & __ptr64>
PUBLIC	??$construct@HAEBH@?$allocator_traits@V?$allocator@H@std@@@std@@SAXAEAV?$allocator@H@1@PEAHAEBH@Z ; std::allocator_traits<std::allocator<int> >::construct<int,int const & __ptr64>
PUBLIC	??$construct@HH@?$allocator_traits@V?$allocator@H@std@@@std@@SAXAEAV?$allocator@H@1@PEAH$$QEAH@Z ; std::allocator_traits<std::allocator<int> >::construct<int,int>
PUBLIC	??$construct@W4Api@RtAudio@@W412@@?$allocator_traits@V?$allocator@W4Api@RtAudio@@@std@@@std@@SAXAEAV?$allocator@W4Api@RtAudio@@@1@PEAW4Api@RtAudio@@$$QEAW434@@Z ; std::allocator_traits<std::allocator<enum RtAudio::Api> >::construct<enum RtAudio::Api,enum RtAudio::Api>
PUBLIC	??$forward@AEAI@std@@YAAEAIAEAI@Z		; std::forward<unsigned int & __ptr64>
PUBLIC	??$construct@IAEAI@?$allocator_traits@V?$allocator@I@std@@@std@@SAXAEAV?$allocator@I@1@PEAIAEAI@Z ; std::allocator_traits<std::allocator<unsigned int> >::construct<unsigned int,unsigned int & __ptr64>
PUBLIC	??$forward@AEBI@std@@YAAEBIAEBI@Z		; std::forward<unsigned int const & __ptr64>
PUBLIC	??$construct@IAEBI@?$allocator_traits@V?$allocator@I@std@@@std@@SAXAEAV?$allocator@I@1@PEAIAEBI@Z ; std::allocator_traits<std::allocator<unsigned int> >::construct<unsigned int,unsigned int const & __ptr64>
PUBLIC	??$construct@II@?$allocator_traits@V?$allocator@I@std@@@std@@SAXAEAV?$allocator@I@1@PEAI$$QEAI@Z ; std::allocator_traits<std::allocator<unsigned int> >::construct<unsigned int,unsigned int>
PUBLIC	??$forward@U?$_Wrap_alloc@V?$allocator@I@std@@@std@@@std@@YA$$QEAU?$_Wrap_alloc@V?$allocator@I@std@@@0@AEAU10@@Z ; std::forward<std::_Wrap_alloc<std::allocator<unsigned int> > >
PUBLIC	??$?0U?$_Wrap_alloc@V?$allocator@I@std@@@std@@$$V@?$_Compressed_pair@U?$_Wrap_alloc@V?$allocator@I@std@@@std@@V?$_Vector_val@U?$_Simple_types@I@std@@@2@$00@std@@QEAA@U_One_then_variadic_args_t@1@$$QEAU?$_Wrap_alloc@V?$allocator@I@std@@@1@@Z ; std::_Compressed_pair<std::_Wrap_alloc<std::allocator<unsigned int> >,std::_Vector_val<std::_Simple_types<unsigned int> >,1>::_Compressed_pair<std::_Wrap_alloc<std::allocator<unsigned int> >,std::_Vector_val<std::_Simple_types<unsigned int> >,1><std::_Wrap_alloc<std::allocator<unsigned int> > >
PUBLIC	??$?8V?$allocator@D@std@@V01@@std@@YA_NAEBU?$_Wrap_alloc@V?$allocator@D@std@@@0@0@Z ; std::operator==<std::allocator<char>,std::allocator<char> >
PUBLIC	??$?8DD@std@@YA_NAEBV?$allocator@D@0@0@Z	; std::operator==<char,char>
PUBLIC	??$forward@U?$_Wrap_alloc@V?$allocator@D@std@@@std@@@std@@YA$$QEAU?$_Wrap_alloc@V?$allocator@D@std@@@0@AEAU10@@Z ; std::forward<std::_Wrap_alloc<std::allocator<char> > >
PUBLIC	??$?0U?$_Wrap_alloc@V?$allocator@D@std@@@std@@$$V@?$_Compressed_pair@U?$_Wrap_alloc@V?$allocator@D@std@@@std@@V?$_String_val@U?$_Simple_types@D@std@@@2@$00@std@@QEAA@U_One_then_variadic_args_t@1@$$QEAU?$_Wrap_alloc@V?$allocator@D@std@@@1@@Z ; std::_Compressed_pair<std::_Wrap_alloc<std::allocator<char> >,std::_String_val<std::_Simple_types<char> >,1>::_Compressed_pair<std::_Wrap_alloc<std::allocator<char> >,std::_String_val<std::_Simple_types<char> >,1><std::_Wrap_alloc<std::allocator<char> > >
PUBLIC	??$_Destroy_range1@V?$allocator@UDsDevice@@@std@@PEAUDsDevice@@@std@@YAXPEAUDsDevice@@0AEAU?$_Wrap_alloc@V?$allocator@UDsDevice@@@std@@@0@U?$integral_constant@_N$0A@@0@@Z ; std::_Destroy_range1<std::allocator<DsDevice>,DsDevice * __ptr64>
PUBLIC	??$_Destroy_range1@V?$allocator@H@std@@PEAH@std@@YAXPEAH0AEAU?$_Wrap_alloc@V?$allocator@H@std@@@0@U?$integral_constant@_N$00@0@@Z ; std::_Destroy_range1<std::allocator<int>,int * __ptr64>
PUBLIC	??$_Destroy_range1@V?$allocator@W4Api@RtAudio@@@std@@PEAW4Api@RtAudio@@@std@@YAXPEAW4Api@RtAudio@@0AEAU?$_Wrap_alloc@V?$allocator@W4Api@RtAudio@@@std@@@0@U?$integral_constant@_N$00@0@@Z ; std::_Destroy_range1<std::allocator<enum RtAudio::Api>,enum RtAudio::Api * __ptr64>
PUBLIC	??$_Destroy_range1@V?$allocator@I@std@@PEAI@std@@YAXPEAI0AEAU?$_Wrap_alloc@V?$allocator@I@std@@@0@U?$integral_constant@_N$00@0@@Z ; std::_Destroy_range1<std::allocator<unsigned int>,unsigned int * __ptr64>
PUBLIC	??$forward@V?$allocator@D@std@@@std@@YA$$QEAV?$allocator@D@0@AEAV10@@Z ; std::forward<std::allocator<char> >
PUBLIC	??$_Pocma@U?$_Wrap_alloc@V?$allocator@D@std@@@std@@@std@@YAXAEAU?$_Wrap_alloc@V?$allocator@D@std@@@0@0U?$integral_constant@_N$00@0@@Z ; std::_Pocma<std::_Wrap_alloc<std::allocator<char> > >
PUBLIC	??$_Pocca@U?$_Wrap_alloc@V?$allocator@D@std@@@std@@@std@@YAXAEAU?$_Wrap_alloc@V?$allocator@D@std@@@0@AEBU10@U?$integral_constant@_N$0A@@0@@Z ; std::_Pocca<std::_Wrap_alloc<std::allocator<char> > >
PUBLIC	??$destroy@PEAD@?$allocator_traits@V?$allocator@D@std@@@std@@SAXAEAV?$allocator@D@1@PEAPEAD@Z ; std::allocator_traits<std::allocator<char> >::destroy<char * __ptr64>
PUBLIC	??$forward@AEAPEAD@std@@YAAEAPEADAEAPEAD@Z	; std::forward<char * __ptr64 & __ptr64>
PUBLIC	??$construct@PEADAEAPEAD@?$allocator_traits@V?$allocator@D@std@@@std@@SAXAEAV?$allocator@D@1@PEAPEADAEAPEAD@Z ; std::allocator_traits<std::allocator<char> >::construct<char * __ptr64,char * __ptr64 & __ptr64>
PUBLIC	??$_Uninitialized_move@PEAUDsDevice@@PEAU1@V?$allocator@UDsDevice@@@std@@@std@@YAPEAUDsDevice@@PEAU1@00AEAU?$_Wrap_alloc@V?$allocator@UDsDevice@@@std@@@0@@Z ; std::_Uninitialized_move<DsDevice * __ptr64,DsDevice * __ptr64,std::allocator<DsDevice> >
PUBLIC	??$_Uninitialized_move@PEAHPEAHV?$allocator@H@std@@@std@@YAPEAHPEAH00AEAU?$_Wrap_alloc@V?$allocator@H@std@@@0@@Z ; std::_Uninitialized_move<int * __ptr64,int * __ptr64,std::allocator<int> >
PUBLIC	??$_Uninitialized_move@PEAW4Api@RtAudio@@PEAW412@V?$allocator@W4Api@RtAudio@@@std@@@std@@YAPEAW4Api@RtAudio@@PEAW412@00AEAU?$_Wrap_alloc@V?$allocator@W4Api@RtAudio@@@std@@@0@@Z ; std::_Uninitialized_move<enum RtAudio::Api * __ptr64,enum RtAudio::Api * __ptr64,std::allocator<enum RtAudio::Api> >
PUBLIC	??$_Uninitialized_move@PEAIPEAIV?$allocator@I@std@@@std@@YAPEAIPEAI00AEAU?$_Wrap_alloc@V?$allocator@I@std@@@0@@Z ; std::_Uninitialized_move<unsigned int * __ptr64,unsigned int * __ptr64,std::allocator<unsigned int> >
PUBLIC	??$_Maklocstr@D@std@@YAPEADPEBDPEADAEBU_Cvtvec@@@Z ; std::_Maklocstr<char>
PUBLIC	??$_Maklocchr@D@std@@YADDPEADAEBU_Cvtvec@@@Z	; std::_Maklocchr<char>
PUBLIC	??$_Getvals@D@?$numpunct@D@std@@IEAAXDPEBUlconv@@U_Cvtvec@@@Z ; std::numpunct<char>::_Getvals<char>
PUBLIC	??$_Unchecked@V?$_Vector_val@U?$_Simple_types@I@std@@@std@@@std@@YAPEAIV?$_Vector_iterator@V?$_Vector_val@U?$_Simple_types@I@std@@@std@@@0@@Z ; std::_Unchecked<std::_Vector_val<std::_Simple_types<unsigned int> > >
PUBLIC	??$_Sort_unchecked@PEAIU?$less@X@std@@@std@@YAXPEAI0AEAU?$less@X@0@@Z ; std::_Sort_unchecked<unsigned int * __ptr64,std::less<void> >
PUBLIC	??$move@AEAUDsDevice@@@std@@YA$$QEAUDsDevice@@AEAU1@@Z ; std::move<DsDevice & __ptr64>
PUBLIC	??$construct@UDsDevice@@AEAU1@@?$allocator@UDsDevice@@@std@@QEAAXPEAUDsDevice@@AEAU2@@Z ; std::allocator<DsDevice>::construct<DsDevice,DsDevice & __ptr64>
PUBLIC	??$construct@UDsDevice@@AEBU1@@?$allocator@UDsDevice@@@std@@QEAAXPEAUDsDevice@@AEBU2@@Z ; std::allocator<DsDevice>::construct<DsDevice,DsDevice const & __ptr64>
PUBLIC	??$construct@HAEAH@?$allocator@H@std@@QEAAXPEAHAEAH@Z ; std::allocator<int>::construct<int,int & __ptr64>
PUBLIC	??$construct@HAEBH@?$allocator@H@std@@QEAAXPEAHAEBH@Z ; std::allocator<int>::construct<int,int const & __ptr64>
PUBLIC	??$construct@HH@?$allocator@H@std@@QEAAXPEAH$$QEAH@Z ; std::allocator<int>::construct<int,int>
PUBLIC	??$construct@W4Api@RtAudio@@W412@@?$allocator@W4Api@RtAudio@@@std@@QEAAXPEAW4Api@RtAudio@@$$QEAW423@@Z ; std::allocator<enum RtAudio::Api>::construct<enum RtAudio::Api,enum RtAudio::Api>
PUBLIC	??$construct@IAEAI@?$allocator@I@std@@QEAAXPEAIAEAI@Z ; std::allocator<unsigned int>::construct<unsigned int,unsigned int & __ptr64>
PUBLIC	??$construct@IAEBI@?$allocator@I@std@@QEAAXPEAIAEBI@Z ; std::allocator<unsigned int>::construct<unsigned int,unsigned int const & __ptr64>
PUBLIC	??$construct@II@?$allocator@I@std@@QEAAXPEAI$$QEAI@Z ; std::allocator<unsigned int>::construct<unsigned int,unsigned int>
PUBLIC	??$destroy@UDsDevice@@@?$_Wrap_alloc@V?$allocator@UDsDevice@@@std@@@std@@QEAAXPEAUDsDevice@@@Z ; std::_Wrap_alloc<std::allocator<DsDevice> >::destroy<DsDevice>
PUBLIC	??$destroy@PEAD@?$allocator@D@std@@QEAAXPEAPEAD@Z ; std::allocator<char>::destroy<char * __ptr64>
PUBLIC	??$construct@PEADAEAPEAD@?$allocator@D@std@@QEAAXPEAPEADAEAPEAD@Z ; std::allocator<char>::construct<char * __ptr64,char * __ptr64 & __ptr64>
PUBLIC	??$_Unchecked@PEAUDsDevice@@@std@@YAPEAUDsDevice@@PEAU1@@Z ; std::_Unchecked<DsDevice * __ptr64>
PUBLIC	??$_Uninitialized_move_al_unchecked@PEAUDsDevice@@PEAU1@V?$allocator@UDsDevice@@@std@@@std@@YAPEAUDsDevice@@PEAU1@00AEAU?$_Wrap_alloc@V?$allocator@UDsDevice@@@std@@@0@@Z ; std::_Uninitialized_move_al_unchecked<DsDevice * __ptr64,DsDevice * __ptr64,std::allocator<DsDevice> >
PUBLIC	??$_Rechecked@PEAUDsDevice@@PEAU1@@std@@YAAEAPEAUDsDevice@@AEAPEAU1@PEAU1@@Z ; std::_Rechecked<DsDevice * __ptr64,DsDevice * __ptr64>
PUBLIC	??$_Unchecked@PEAH@std@@YAPEAHPEAH@Z		; std::_Unchecked<int * __ptr64>
PUBLIC	??$_Uninitialized_move_al_unchecked@PEAHPEAHV?$allocator@H@std@@@std@@YAPEAHPEAH00AEAU?$_Wrap_alloc@V?$allocator@H@std@@@0@@Z ; std::_Uninitialized_move_al_unchecked<int * __ptr64,int * __ptr64,std::allocator<int> >
PUBLIC	??$_Rechecked@PEAHPEAH@std@@YAAEAPEAHAEAPEAHPEAH@Z ; std::_Rechecked<int * __ptr64,int * __ptr64>
PUBLIC	??$_Unchecked@PEAW4Api@RtAudio@@@std@@YAPEAW4Api@RtAudio@@PEAW412@@Z ; std::_Unchecked<enum RtAudio::Api * __ptr64>
PUBLIC	??$_Uninitialized_move_al_unchecked@PEAW4Api@RtAudio@@PEAW412@V?$allocator@W4Api@RtAudio@@@std@@@std@@YAPEAW4Api@RtAudio@@PEAW412@00AEAU?$_Wrap_alloc@V?$allocator@W4Api@RtAudio@@@std@@@0@@Z ; std::_Uninitialized_move_al_unchecked<enum RtAudio::Api * __ptr64,enum RtAudio::Api * __ptr64,std::allocator<enum RtAudio::Api> >
PUBLIC	??$_Rechecked@PEAW4Api@RtAudio@@PEAW412@@std@@YAAEAPEAW4Api@RtAudio@@AEAPEAW412@PEAW412@@Z ; std::_Rechecked<enum RtAudio::Api * __ptr64,enum RtAudio::Api * __ptr64>
PUBLIC	??$_Unchecked@PEAI@std@@YAPEAIPEAI@Z		; std::_Unchecked<unsigned int * __ptr64>
PUBLIC	??$_Uninitialized_move_al_unchecked@PEAIPEAIV?$allocator@I@std@@@std@@YAPEAIPEAI00AEAU?$_Wrap_alloc@V?$allocator@I@std@@@0@@Z ; std::_Uninitialized_move_al_unchecked<unsigned int * __ptr64,unsigned int * __ptr64,std::allocator<unsigned int> >
PUBLIC	??$_Rechecked@PEAIPEAI@std@@YAAEAPEAIAEAPEAIPEAI@Z ; std::_Rechecked<unsigned int * __ptr64,unsigned int * __ptr64>
PUBLIC	??$_Sort_unchecked1@PEAI_JU?$less@X@std@@@std@@YAXPEAI0_JAEAU?$less@X@0@@Z ; std::_Sort_unchecked1<unsigned int * __ptr64,__int64,std::less<void> >
PUBLIC	??$destroy@UDsDevice@@@?$allocator_traits@V?$allocator@UDsDevice@@@std@@@std@@SAXAEAV?$allocator@UDsDevice@@@1@PEAUDsDevice@@@Z ; std::allocator_traits<std::allocator<DsDevice> >::destroy<DsDevice>
PUBLIC	??$_Uninitialized_move_al_unchecked1@PEAUDsDevice@@PEAU1@V?$allocator@UDsDevice@@@std@@@std@@YAPEAUDsDevice@@PEAU1@00AEAU?$_Wrap_alloc@V?$allocator@UDsDevice@@@std@@@0@U_General_ptr_iterator_tag@0@U_Any_tag@0@@Z ; std::_Uninitialized_move_al_unchecked1<DsDevice * __ptr64,DsDevice * __ptr64,std::allocator<DsDevice> >
PUBLIC	??$?0U?$integral_constant@_N$00@std@@@_Any_tag@std@@QEAA@$$QEAU?$integral_constant@_N$00@1@@Z ; std::_Any_tag::_Any_tag<std::integral_constant<bool,1> >
PUBLIC	??$_Ptr_move_cat@HH@std@@YA?AU_Really_trivial_ptr_iterator_tag@0@AEBQEAH0@Z ; std::_Ptr_move_cat<int,int>
PUBLIC	??$_Uninitialized_move_al_unchecked1@HHV?$allocator@H@std@@@std@@YAPEAHPEAH00AEAU?$_Wrap_alloc@V?$allocator@H@std@@@0@U_Really_trivial_ptr_iterator_tag@0@U?$integral_constant@_N$00@0@@Z ; std::_Uninitialized_move_al_unchecked1<int,int,std::allocator<int> >
PUBLIC	??$_Ptr_move_cat@W4Api@RtAudio@@W412@@std@@YA?AU_Really_trivial_ptr_iterator_tag@0@AEBQEAW4Api@RtAudio@@0@Z ; std::_Ptr_move_cat<enum RtAudio::Api,enum RtAudio::Api>
PUBLIC	??$_Uninitialized_move_al_unchecked1@W4Api@RtAudio@@W412@V?$allocator@W4Api@RtAudio@@@std@@@std@@YAPEAW4Api@RtAudio@@PEAW412@00AEAU?$_Wrap_alloc@V?$allocator@W4Api@RtAudio@@@std@@@0@U_Really_trivial_ptr_iterator_tag@0@U?$integral_constant@_N$00@0@@Z ; std::_Uninitialized_move_al_unchecked1<enum RtAudio::Api,enum RtAudio::Api,std::allocator<enum RtAudio::Api> >
PUBLIC	??$move@AEAI@std@@YA$$QEAIAEAI@Z		; std::move<unsigned int & __ptr64>
PUBLIC	??$_Ptr_move_cat@II@std@@YA?AU_Really_trivial_ptr_iterator_tag@0@AEBQEAI0@Z ; std::_Ptr_move_cat<unsigned int,unsigned int>
PUBLIC	??$_Uninitialized_move_al_unchecked1@IIV?$allocator@I@std@@@std@@YAPEAIPEAI00AEAU?$_Wrap_alloc@V?$allocator@I@std@@@0@U_Really_trivial_ptr_iterator_tag@0@U?$integral_constant@_N$00@0@@Z ; std::_Uninitialized_move_al_unchecked1<unsigned int,unsigned int,std::allocator<unsigned int> >
PUBLIC	??$_Partition_by_median_guess_unchecked@PEAIU?$less@X@std@@@std@@YA?AU?$pair@PEAIPEAI@0@PEAI0AEAU?$less@X@0@@Z ; std::_Partition_by_median_guess_unchecked<unsigned int * __ptr64,std::less<void> >
PUBLIC	??$_Make_heap_unchecked@PEAIU?$less@X@std@@@std@@YAXPEAI0AEAU?$less@X@0@@Z ; std::_Make_heap_unchecked<unsigned int * __ptr64,std::less<void> >
PUBLIC	??$_Sort_heap_unchecked@PEAIU?$less@X@std@@@std@@YAXPEAI0AEAU?$less@X@0@@Z ; std::_Sort_heap_unchecked<unsigned int * __ptr64,std::less<void> >
PUBLIC	??$_Insertion_sort_unchecked@PEAIU?$less@X@std@@@std@@YAXPEAI0AEAU?$less@X@0@@Z ; std::_Insertion_sort_unchecked<unsigned int * __ptr64,std::less<void> >
PUBLIC	??$destroy@UDsDevice@@@?$allocator@UDsDevice@@@std@@QEAAXPEAUDsDevice@@@Z ; std::allocator<DsDevice>::destroy<DsDevice>
PUBLIC	??$construct@UDsDevice@@U1@@?$_Wrap_alloc@V?$allocator@UDsDevice@@@std@@@std@@QEAAXPEAUDsDevice@@$$QEAU2@@Z ; std::_Wrap_alloc<std::allocator<DsDevice> >::construct<DsDevice,DsDevice>
PUBLIC	??$_Copy_memmove@PEAHPEAH@std@@YAPEAHPEAH00@Z	; std::_Copy_memmove<int * __ptr64,int * __ptr64>
PUBLIC	??$_Copy_memmove@PEAW4Api@RtAudio@@PEAW412@@std@@YAPEAW4Api@RtAudio@@PEAW412@00@Z ; std::_Copy_memmove<enum RtAudio::Api * __ptr64,enum RtAudio::Api * __ptr64>
PUBLIC	??$_Copy_memmove@PEAIPEAI@std@@YAPEAIPEAI00@Z	; std::_Copy_memmove<unsigned int * __ptr64,unsigned int * __ptr64>
PUBLIC	??$_Guess_median_unchecked@PEAIU?$less@X@std@@@std@@YAXPEAI00AEAU?$less@X@0@@Z ; std::_Guess_median_unchecked<unsigned int * __ptr64,std::less<void> >
PUBLIC	??$?RAEAIAEAI@?$less@X@std@@QEBA_NAEAI0@Z	; std::less<void>::operator()<unsigned int & __ptr64,unsigned int & __ptr64>
PUBLIC	??$iter_swap@PEAIPEAI@std@@YAXPEAI0@Z		; std::iter_swap<unsigned int * __ptr64,unsigned int * __ptr64>
PUBLIC	??$?0AEAPEAIAEAPEAIX$0A@@?$pair@PEAIPEAI@std@@QEAA@AEAPEAI0@Z ; std::pair<unsigned int * __ptr64,unsigned int * __ptr64>::pair<unsigned int * __ptr64,unsigned int * __ptr64><unsigned int * __ptr64 & __ptr64,unsigned int * __ptr64 & __ptr64,void,0>
PUBLIC	??$_Pop_heap_hole_by_index@PEAI_JIU?$less@X@std@@@std@@YAXPEAI_J1$$QEAIAEAU?$less@X@0@@Z ; std::_Pop_heap_hole_by_index<unsigned int * __ptr64,__int64,unsigned int,std::less<void> >
PUBLIC	??$_Pop_heap_unchecked@PEAIU?$less@X@std@@@std@@YAXPEAI0AEAU?$less@X@0@@Z ; std::_Pop_heap_unchecked<unsigned int * __ptr64,std::less<void> >
PUBLIC	??$_Move_backward_unchecked@PEAIPEAI@std@@YAPEAIPEAI00@Z ; std::_Move_backward_unchecked<unsigned int * __ptr64,unsigned int * __ptr64>
PUBLIC	??$forward@UDsDevice@@@std@@YA$$QEAUDsDevice@@AEAU1@@Z ; std::forward<DsDevice>
PUBLIC	??$construct@UDsDevice@@U1@@?$allocator_traits@V?$allocator@UDsDevice@@@std@@@std@@SAXAEAV?$allocator@UDsDevice@@@1@PEAUDsDevice@@$$QEAU3@@Z ; std::allocator_traits<std::allocator<DsDevice> >::construct<DsDevice,DsDevice>
PUBLIC	??$_Med3_unchecked@PEAIU?$less@X@std@@@std@@YAXPEAI00AEAU?$less@X@0@@Z ; std::_Med3_unchecked<unsigned int * __ptr64,std::less<void> >
PUBLIC	??$swap@IX@std@@YAXAEAI0@Z			; std::swap<unsigned int,void>
PUBLIC	??$forward@AEAPEAI@std@@YAAEAPEAIAEAPEAI@Z	; std::forward<unsigned int * __ptr64 & __ptr64>
PUBLIC	??$_Push_heap_by_index@PEAI_JIU?$less@X@std@@@std@@YAXPEAI_J1$$QEAIAEAU?$less@X@0@@Z ; std::_Push_heap_by_index<unsigned int * __ptr64,__int64,unsigned int,std::less<void> >
PUBLIC	??$_Pop_heap_hole_unchecked@PEAIIU?$less@X@std@@@std@@YAXPEAI00$$QEAIAEAU?$less@X@0@@Z ; std::_Pop_heap_hole_unchecked<unsigned int * __ptr64,unsigned int,std::less<void> >
PUBLIC	??$_Move_backward_unchecked1@PEAIPEAI@std@@YAPEAIPEAI00U_Trivially_copyable_ptr_iterator_tag@0@@Z ; std::_Move_backward_unchecked1<unsigned int * __ptr64,unsigned int * __ptr64>
PUBLIC	??$construct@UDsDevice@@U1@@?$allocator@UDsDevice@@@std@@QEAAXPEAUDsDevice@@$$QEAU2@@Z ; std::allocator<DsDevice>::construct<DsDevice,DsDevice>
PUBLIC	??$_Copy_backward_memmove@PEAIPEAI@std@@YAPEAIPEAI00@Z ; std::_Copy_backward_memmove<unsigned int * __ptr64,unsigned int * __ptr64>
PUBLIC	??_E?$basic_ostream@DU?$char_traits@D@std@@@std@@$4PPPPPPPM@A@EAAPEAXI@Z ; std::basic_ostream<char,std::char_traits<char> >::`vector deleting destructor'
PUBLIC	??_E?$basic_ostringstream@DU?$char_traits@D@std@@V?$allocator@D@2@@std@@$4PPPPPPPM@A@EAAPEAXI@Z ; std::basic_ostringstream<char,std::char_traits<char>,std::allocator<char> >::`vector deleting destructor'
PUBLIC	?_OptionsStorage@?1??__local_stdio_printf_options@@9@4_KA ; `__local_stdio_printf_options'::`2'::_OptionsStorage
PUBLIC	??_7exception@std@@6B@				; std::exception::`vftable'
PUBLIC	??_C@_0BC@EOODALEL@Unknown?5exception?$AA@	; `string'
PUBLIC	?npos@?$basic_string@DU?$char_traits@D@std@@V?$allocator@D@2@@std@@2_KB ; std::basic_string<char,std::char_traits<char>,std::allocator<char> >::npos
PUBLIC	??_7runtime_error@std@@6B@			; std::runtime_error::`vftable'
PUBLIC	??_7bad_cast@std@@6B@				; std::bad_cast::`vftable'
PUBLIC	??_C@_08EPJLHIJG@bad?5cast?$AA@			; `string'
PUBLIC	_TI2?AVruntime_error@std@@
PUBLIC	_CTA2?AVruntime_error@std@@
PUBLIC	??_R0?AVruntime_error@std@@@8			; std::runtime_error `RTTI Type Descriptor'
PUBLIC	_CT??_R0?AVruntime_error@std@@@824
PUBLIC	??_R0?AVexception@std@@@8			; std::exception `RTTI Type Descriptor'
PUBLIC	_CT??_R0?AVexception@std@@@824
PUBLIC	??_C@_0BA@ELKIONDK@bad?5locale?5name?$AA@	; `string'
PUBLIC	??_C@_05LAPONLG@false?$AA@			; `string'
PUBLIC	??_C@_04LOAJBDKD@true?$AA@			; `string'
PUBLIC	??_7_Facet_base@std@@6B@			; std::_Facet_base::`vftable'
PUBLIC	??_7facet@locale@std@@6B@			; std::locale::facet::`vftable'
PUBLIC	??_C@_00CNPNBAHC@?$AA@				; `string'
PUBLIC	??_7ctype_base@std@@6B@				; std::ctype_base::`vftable'
PUBLIC	??_7?$ctype@D@std@@6B@				; std::ctype<char>::`vftable'
PUBLIC	??_7error_category@std@@6B@			; std::error_category::`vftable'
PUBLIC	??_7_System_error@std@@6B@			; std::_System_error::`vftable'
PUBLIC	??_C@_02LMMGGCAJ@?3?5?$AA@			; `string'
PUBLIC	??_7system_error@std@@6B@			; std::system_error::`vftable'
PUBLIC	??_7_Generic_error_category@std@@6B@		; std::_Generic_error_category::`vftable'
PUBLIC	??_C@_07DCLBNMLN@generic?$AA@			; `string'
PUBLIC	??_7_Iostream_error_category@std@@6B@		; std::_Iostream_error_category::`vftable'
PUBLIC	??_C@_08LLGCOLLL@iostream?$AA@			; `string'
PUBLIC	??_C@_0BG@PADBLCHM@iostream?5stream?5error?$AA@	; `string'
PUBLIC	??_7failure@ios_base@std@@6B@			; std::ios_base::failure::`vftable'
PUBLIC	??_7ios_base@std@@6B@				; std::ios_base::`vftable'
PUBLIC	_TI5?AVfailure@ios_base@std@@
PUBLIC	_CTA5?AVfailure@ios_base@std@@
PUBLIC	??_R0?AVfailure@ios_base@std@@@8		; std::ios_base::failure `RTTI Type Descriptor'
PUBLIC	_CT??_R0?AVfailure@ios_base@std@@@840
PUBLIC	??_R0?AVsystem_error@std@@@8			; std::system_error `RTTI Type Descriptor'
PUBLIC	_CT??_R0?AVsystem_error@std@@@840
PUBLIC	??_R0?AV_System_error@std@@@8			; std::_System_error `RTTI Type Descriptor'
PUBLIC	_CT??_R0?AV_System_error@std@@@840
PUBLIC	??_C@_0BF@PHHKMMFD@ios_base?3?3badbit?5set?$AA@	; `string'
PUBLIC	??_C@_0BG@FMKFHCIL@ios_base?3?3failbit?5set?$AA@ ; `string'
PUBLIC	??_C@_0BF@OOHOMBOF@ios_base?3?3eofbit?5set?$AA@	; `string'
PUBLIC	??_7RtAudioError@@6B@				; RtAudioError::`vftable'
PUBLIC	??_7?$basic_ios@DU?$char_traits@D@std@@@std@@6B@ ; std::basic_ios<char,std::char_traits<char> >::`vftable'
PUBLIC	??_7?$basic_ostream@DU?$char_traits@D@std@@@std@@6B@ ; std::basic_ostream<char,std::char_traits<char> >::`vftable'
PUBLIC	??_8?$basic_ostream@DU?$char_traits@D@std@@@std@@7B@ ; std::basic_ostream<char,std::char_traits<char> >::`vbtable'
PUBLIC	??_C@_02PHMGELLB@?6?6?$AA@			; `string'
PUBLIC	??_7?$basic_streambuf@DU?$char_traits@D@std@@@std@@6B@ ; std::basic_streambuf<char,std::char_traits<char> >::`vftable'
PUBLIC	??_7?$basic_stringbuf@DU?$char_traits@D@std@@V?$allocator@D@2@@std@@6B@ ; std::basic_stringbuf<char,std::char_traits<char>,std::allocator<char> >::`vftable'
PUBLIC	??_7?$basic_ostringstream@DU?$char_traits@D@std@@V?$allocator@D@2@@std@@6B@ ; std::basic_ostringstream<char,std::char_traits<char>,std::allocator<char> >::`vftable'
PUBLIC	??_8?$basic_ostringstream@DU?$char_traits@D@std@@V?$allocator@D@2@@std@@7B@ ; std::basic_ostringstream<char,std::char_traits<char>,std::allocator<char> >::`vbtable'
PUBLIC	??_7RtApi@@6B@					; RtApi::`vftable'
PUBLIC	??_7RtApiDs@@6B@				; RtApiDs::`vftable'
PUBLIC	_TI3?AVRtAudioError@@
PUBLIC	_CTA3?AVRtAudioError@@
PUBLIC	??_R0?AVRtAudioError@@@8			; RtAudioError `RTTI Type Descriptor'
PUBLIC	_CT??_R0?AVRtAudioError@@@832
PUBLIC	??_R0?AVbad_alloc@std@@@8			; std::bad_alloc `RTTI Type Descriptor'
PUBLIC	?id@?$num_put@DV?$ostreambuf_iterator@DU?$char_traits@D@std@@@std@@@std@@2V0locale@2@A ; std::num_put<char,std::ostreambuf_iterator<char,std::char_traits<char> > >::id
PUBLIC	??_7?$num_put@DV?$ostreambuf_iterator@DU?$char_traits@D@std@@@std@@@std@@6B@ ; std::num_put<char,std::ostreambuf_iterator<char,std::char_traits<char> > >::`vftable'
PUBLIC	??_C@_02BBAHNLBA@?$CFp?$AA@			; `string'
PUBLIC	??_C@_02CLHGNPPK@Lu?$AA@			; `string'
PUBLIC	??_C@_02HIKPPMOK@Ld?$AA@			; `string'
PUBLIC	??_C@_02BDDLJJBK@lu?$AA@			; `string'
PUBLIC	??_C@_02EAOCLKAK@ld?$AA@			; `string'
PUBLIC	?id@?$numpunct@D@std@@2V0locale@2@A		; std::numpunct<char>::id
PUBLIC	??_7?$numpunct@D@std@@6B@			; std::numpunct<char>::`vftable'
PUBLIC	??_C@_0BD@OLBABOEK@vector?$DMT?$DO?5too?5long?$AA@ ; `string'
PUBLIC	??_C@_02MDKMJEGG@eE?$AA@			; `string'
PUBLIC	??_C@_02OOPEBDOJ@pP?$AA@			; `string'
PUBLIC	??_C@_01LFCBOECM@?4?$AA@			; `string'
PUBLIC	??_C@_0BA@JFNIOLAK@string?5too?5long?$AA@	; `string'
PUBLIC	??_C@_0BI@CFPLBAOH@invalid?5string?5position?$AA@ ; `string'
PUBLIC	?_Psave@?$_Facetptr@V?$ctype@D@std@@@std@@2PEBVfacet@locale@2@EB ; std::_Facetptr<std::ctype<char> >::_Psave
PUBLIC	_TI2?AVbad_cast@std@@
PUBLIC	_CTA2?AVbad_cast@std@@
PUBLIC	??_R0?AVbad_cast@std@@@8			; std::bad_cast `RTTI Type Descriptor'
PUBLIC	_CT??_R0?AVbad_cast@std@@@824
PUBLIC	?_Static@?1???$_Immortalize@V_Iostream_error_category@std@@@std@@YAAEAV_Iostream_error_category@1@XZ@4U?$_Immortalizer@V_Iostream_error_category@std@@@1@A ; `std::_Immortalize<std::_Iostream_error_category>'::`2'::_Static
PUBLIC	?$TSS0@?1???$_Immortalize@V_Iostream_error_category@std@@@std@@YAAEAV_Iostream_error_category@1@XZ@4HA ; TSS0<`template-parameter-2',unsigned int,std::V_Iostream_error_category::mortalize>
PUBLIC	?_Psave@?$_Facetptr@V?$num_put@DV?$ostreambuf_iterator@DU?$char_traits@D@std@@@std@@@std@@@std@@2PEBVfacet@locale@2@EB ; std::_Facetptr<std::num_put<char,std::ostreambuf_iterator<char,std::char_traits<char> > > >::_Psave
PUBLIC	?_Psave@?$_Facetptr@V?$numpunct@D@std@@@std@@2PEBVfacet@locale@2@EB ; std::_Facetptr<std::numpunct<char> >::_Psave
PUBLIC	??_R4exception@std@@6B@				; std::exception::`RTTI Complete Object Locator'
PUBLIC	??_R3exception@std@@8				; std::exception::`RTTI Class Hierarchy Descriptor'
PUBLIC	??_R2exception@std@@8				; std::exception::`RTTI Base Class Array'
PUBLIC	??_R1A@?0A@EA@exception@std@@8			; std::exception::`RTTI Base Class Descriptor at (0,-1,0,64)'
PUBLIC	??_R4ios_base@std@@6B@				; std::ios_base::`RTTI Complete Object Locator'
PUBLIC	??_R0?AVios_base@std@@@8			; std::ios_base `RTTI Type Descriptor'
PUBLIC	??_R3ios_base@std@@8				; std::ios_base::`RTTI Class Hierarchy Descriptor'
PUBLIC	??_R2ios_base@std@@8				; std::ios_base::`RTTI Base Class Array'
PUBLIC	??_R1A@?0A@EA@ios_base@std@@8			; std::ios_base::`RTTI Base Class Descriptor at (0,-1,0,64)'
PUBLIC	??_R17?0A@EA@?$_Iosb@H@std@@8			; std::_Iosb<int>::`RTTI Base Class Descriptor at (8,-1,0,64)'
PUBLIC	??_R0?AV?$_Iosb@H@std@@@8			; std::_Iosb<int> `RTTI Type Descriptor'
PUBLIC	??_R3?$_Iosb@H@std@@8				; std::_Iosb<int>::`RTTI Class Hierarchy Descriptor'
PUBLIC	??_R2?$_Iosb@H@std@@8				; std::_Iosb<int>::`RTTI Base Class Array'
PUBLIC	??_R1A@?0A@EA@?$_Iosb@H@std@@8			; std::_Iosb<int>::`RTTI Base Class Descriptor at (0,-1,0,64)'
PUBLIC	??_R4?$basic_ios@DU?$char_traits@D@std@@@std@@6B@ ; std::basic_ios<char,std::char_traits<char> >::`RTTI Complete Object Locator'
PUBLIC	??_R0?AV?$basic_ios@DU?$char_traits@D@std@@@std@@@8 ; std::basic_ios<char,std::char_traits<char> > `RTTI Type Descriptor'
PUBLIC	??_R3?$basic_ios@DU?$char_traits@D@std@@@std@@8	; std::basic_ios<char,std::char_traits<char> >::`RTTI Class Hierarchy Descriptor'
PUBLIC	??_R2?$basic_ios@DU?$char_traits@D@std@@@std@@8	; std::basic_ios<char,std::char_traits<char> >::`RTTI Base Class Array'
PUBLIC	??_R1A@?0A@EA@?$basic_ios@DU?$char_traits@D@std@@@std@@8 ; std::basic_ios<char,std::char_traits<char> >::`RTTI Base Class Descriptor at (0,-1,0,64)'
PUBLIC	??_R4?$basic_streambuf@DU?$char_traits@D@std@@@std@@6B@ ; std::basic_streambuf<char,std::char_traits<char> >::`RTTI Complete Object Locator'
PUBLIC	??_R0?AV?$basic_streambuf@DU?$char_traits@D@std@@@std@@@8 ; std::basic_streambuf<char,std::char_traits<char> > `RTTI Type Descriptor'
PUBLIC	??_R3?$basic_streambuf@DU?$char_traits@D@std@@@std@@8 ; std::basic_streambuf<char,std::char_traits<char> >::`RTTI Class Hierarchy Descriptor'
PUBLIC	??_R2?$basic_streambuf@DU?$char_traits@D@std@@@std@@8 ; std::basic_streambuf<char,std::char_traits<char> >::`RTTI Base Class Array'
PUBLIC	??_R1A@?0A@EA@?$basic_streambuf@DU?$char_traits@D@std@@@std@@8 ; std::basic_streambuf<char,std::char_traits<char> >::`RTTI Base Class Descriptor at (0,-1,0,64)'
PUBLIC	??_R4?$basic_ostream@DU?$char_traits@D@std@@@std@@6B@ ; std::basic_ostream<char,std::char_traits<char> >::`RTTI Complete Object Locator'
PUBLIC	??_R0?AV?$basic_ostream@DU?$char_traits@D@std@@@std@@@8 ; std::basic_ostream<char,std::char_traits<char> > `RTTI Type Descriptor'
PUBLIC	??_R3?$basic_ostream@DU?$char_traits@D@std@@@std@@8 ; std::basic_ostream<char,std::char_traits<char> >::`RTTI Class Hierarchy Descriptor'
PUBLIC	??_R2?$basic_ostream@DU?$char_traits@D@std@@@std@@8 ; std::basic_ostream<char,std::char_traits<char> >::`RTTI Base Class Array'
PUBLIC	??_R1A@?0A@EA@?$basic_ostream@DU?$char_traits@D@std@@@std@@8 ; std::basic_ostream<char,std::char_traits<char> >::`RTTI Base Class Descriptor at (0,-1,0,64)'
PUBLIC	??_R1A@A@3FA@?$basic_ios@DU?$char_traits@D@std@@@std@@8 ; std::basic_ios<char,std::char_traits<char> >::`RTTI Base Class Descriptor at (0,0,4,80)'
PUBLIC	??_R1A@A@3EA@ios_base@std@@8			; std::ios_base::`RTTI Base Class Descriptor at (0,0,4,64)'
PUBLIC	??_R17A@3EA@?$_Iosb@H@std@@8			; std::_Iosb<int>::`RTTI Base Class Descriptor at (8,0,4,64)'
PUBLIC	??_R4?$basic_stringbuf@DU?$char_traits@D@std@@V?$allocator@D@2@@std@@6B@ ; std::basic_stringbuf<char,std::char_traits<char>,std::allocator<char> >::`RTTI Complete Object Locator'
PUBLIC	??_R0?AV?$basic_stringbuf@DU?$char_traits@D@std@@V?$allocator@D@2@@std@@@8 ; std::basic_stringbuf<char,std::char_traits<char>,std::allocator<char> > `RTTI Type Descriptor'
PUBLIC	??_R3?$basic_stringbuf@DU?$char_traits@D@std@@V?$allocator@D@2@@std@@8 ; std::basic_stringbuf<char,std::char_traits<char>,std::allocator<char> >::`RTTI Class Hierarchy Descriptor'
PUBLIC	??_R2?$basic_stringbuf@DU?$char_traits@D@std@@V?$allocator@D@2@@std@@8 ; std::basic_stringbuf<char,std::char_traits<char>,std::allocator<char> >::`RTTI Base Class Array'
PUBLIC	??_R1A@?0A@EA@?$basic_stringbuf@DU?$char_traits@D@std@@V?$allocator@D@2@@std@@8 ; std::basic_stringbuf<char,std::char_traits<char>,std::allocator<char> >::`RTTI Base Class Descriptor at (0,-1,0,64)'
PUBLIC	??_R4?$basic_ostringstream@DU?$char_traits@D@std@@V?$allocator@D@2@@std@@6B@ ; std::basic_ostringstream<char,std::char_traits<char>,std::allocator<char> >::`RTTI Complete Object Locator'
PUBLIC	??_R0?AV?$basic_ostringstream@DU?$char_traits@D@std@@V?$allocator@D@2@@std@@@8 ; std::basic_ostringstream<char,std::char_traits<char>,std::allocator<char> > `RTTI Type Descriptor'
PUBLIC	??_R3?$basic_ostringstream@DU?$char_traits@D@std@@V?$allocator@D@2@@std@@8 ; std::basic_ostringstream<char,std::char_traits<char>,std::allocator<char> >::`RTTI Class Hierarchy Descriptor'
PUBLIC	??_R2?$basic_ostringstream@DU?$char_traits@D@std@@V?$allocator@D@2@@std@@8 ; std::basic_ostringstream<char,std::char_traits<char>,std::allocator<char> >::`RTTI Base Class Array'
PUBLIC	??_R1A@?0A@EA@?$basic_ostringstream@DU?$char_traits@D@std@@V?$allocator@D@2@@std@@8 ; std::basic_ostringstream<char,std::char_traits<char>,std::allocator<char> >::`RTTI Base Class Descriptor at (0,-1,0,64)'
PUBLIC	??_R4runtime_error@std@@6B@			; std::runtime_error::`RTTI Complete Object Locator'
PUBLIC	??_R3runtime_error@std@@8			; std::runtime_error::`RTTI Class Hierarchy Descriptor'
PUBLIC	??_R2runtime_error@std@@8			; std::runtime_error::`RTTI Base Class Array'
PUBLIC	??_R1A@?0A@EA@runtime_error@std@@8		; std::runtime_error::`RTTI Base Class Descriptor at (0,-1,0,64)'
PUBLIC	??_R4bad_cast@std@@6B@				; std::bad_cast::`RTTI Complete Object Locator'
PUBLIC	??_R3bad_cast@std@@8				; std::bad_cast::`RTTI Class Hierarchy Descriptor'
PUBLIC	??_R2bad_cast@std@@8				; std::bad_cast::`RTTI Base Class Array'
PUBLIC	??_R1A@?0A@EA@bad_cast@std@@8			; std::bad_cast::`RTTI Base Class Descriptor at (0,-1,0,64)'
PUBLIC	??_R4_Facet_base@std@@6B@			; std::_Facet_base::`RTTI Complete Object Locator'
PUBLIC	??_R0?AV_Facet_base@std@@@8			; std::_Facet_base `RTTI Type Descriptor'
PUBLIC	??_R3_Facet_base@std@@8				; std::_Facet_base::`RTTI Class Hierarchy Descriptor'
PUBLIC	??_R2_Facet_base@std@@8				; std::_Facet_base::`RTTI Base Class Array'
PUBLIC	??_R1A@?0A@EA@_Facet_base@std@@8		; std::_Facet_base::`RTTI Base Class Descriptor at (0,-1,0,64)'
PUBLIC	??_R1A@?0A@EA@facet@locale@std@@8		; std::locale::facet::`RTTI Base Class Descriptor at (0,-1,0,64)'
PUBLIC	??_R0?AVfacet@locale@std@@@8			; std::locale::facet `RTTI Type Descriptor'
PUBLIC	??_R3facet@locale@std@@8			; std::locale::facet::`RTTI Class Hierarchy Descriptor'
PUBLIC	??_R2facet@locale@std@@8			; std::locale::facet::`RTTI Base Class Array'
PUBLIC	??_R17?0A@EA@_Crt_new_delete@std@@8		; std::_Crt_new_delete::`RTTI Base Class Descriptor at (8,-1,0,64)'
PUBLIC	??_R0?AU_Crt_new_delete@std@@@8			; std::_Crt_new_delete `RTTI Type Descriptor'
PUBLIC	??_R3_Crt_new_delete@std@@8			; std::_Crt_new_delete::`RTTI Class Hierarchy Descriptor'
PUBLIC	??_R2_Crt_new_delete@std@@8			; std::_Crt_new_delete::`RTTI Base Class Array'
PUBLIC	??_R1A@?0A@EA@_Crt_new_delete@std@@8		; std::_Crt_new_delete::`RTTI Base Class Descriptor at (0,-1,0,64)'
PUBLIC	??_R4facet@locale@std@@6B@			; std::locale::facet::`RTTI Complete Object Locator'
PUBLIC	??_R4ctype_base@std@@6B@			; std::ctype_base::`RTTI Complete Object Locator'
PUBLIC	??_R0?AUctype_base@std@@@8			; std::ctype_base `RTTI Type Descriptor'
PUBLIC	??_R3ctype_base@std@@8				; std::ctype_base::`RTTI Class Hierarchy Descriptor'
PUBLIC	??_R2ctype_base@std@@8				; std::ctype_base::`RTTI Base Class Array'
PUBLIC	??_R1A@?0A@EA@ctype_base@std@@8			; std::ctype_base::`RTTI Base Class Descriptor at (0,-1,0,64)'
PUBLIC	??_R4?$ctype@D@std@@6B@				; std::ctype<char>::`RTTI Complete Object Locator'
PUBLIC	??_R0?AV?$ctype@D@std@@@8			; std::ctype<char> `RTTI Type Descriptor'
PUBLIC	??_R3?$ctype@D@std@@8				; std::ctype<char>::`RTTI Class Hierarchy Descriptor'
PUBLIC	??_R2?$ctype@D@std@@8				; std::ctype<char>::`RTTI Base Class Array'
PUBLIC	??_R1A@?0A@EA@?$ctype@D@std@@8			; std::ctype<char>::`RTTI Base Class Descriptor at (0,-1,0,64)'
PUBLIC	??_R4error_category@std@@6B@			; std::error_category::`RTTI Complete Object Locator'
PUBLIC	??_R0?AVerror_category@std@@@8			; std::error_category `RTTI Type Descriptor'
PUBLIC	??_R3error_category@std@@8			; std::error_category::`RTTI Class Hierarchy Descriptor'
PUBLIC	??_R2error_category@std@@8			; std::error_category::`RTTI Base Class Array'
PUBLIC	??_R1A@?0A@EA@error_category@std@@8		; std::error_category::`RTTI Base Class Descriptor at (0,-1,0,64)'
PUBLIC	??_R4_System_error@std@@6B@			; std::_System_error::`RTTI Complete Object Locator'
PUBLIC	??_R3_System_error@std@@8			; std::_System_error::`RTTI Class Hierarchy Descriptor'
PUBLIC	??_R2_System_error@std@@8			; std::_System_error::`RTTI Base Class Array'
PUBLIC	??_R1A@?0A@EA@_System_error@std@@8		; std::_System_error::`RTTI Base Class Descriptor at (0,-1,0,64)'
PUBLIC	??_R4system_error@std@@6B@			; std::system_error::`RTTI Complete Object Locator'
PUBLIC	??_R3system_error@std@@8			; std::system_error::`RTTI Class Hierarchy Descriptor'
PUBLIC	??_R2system_error@std@@8			; std::system_error::`RTTI Base Class Array'
PUBLIC	??_R1A@?0A@EA@system_error@std@@8		; std::system_error::`RTTI Base Class Descriptor at (0,-1,0,64)'
PUBLIC	??_R4_Generic_error_category@std@@6B@		; std::_Generic_error_category::`RTTI Complete Object Locator'
PUBLIC	??_R0?AV_Generic_error_category@std@@@8		; std::_Generic_error_category `RTTI Type Descriptor'
PUBLIC	??_R3_Generic_error_category@std@@8		; std::_Generic_error_category::`RTTI Class Hierarchy Descriptor'
PUBLIC	??_R2_Generic_error_category@std@@8		; std::_Generic_error_category::`RTTI Base Class Array'
PUBLIC	??_R1A@?0A@EA@_Generic_error_category@std@@8	; std::_Generic_error_category::`RTTI Base Class Descriptor at (0,-1,0,64)'
PUBLIC	??_R4_Iostream_error_category@std@@6B@		; std::_Iostream_error_category::`RTTI Complete Object Locator'
PUBLIC	??_R0?AV_Iostream_error_category@std@@@8	; std::_Iostream_error_category `RTTI Type Descriptor'
PUBLIC	??_R3_Iostream_error_category@std@@8		; std::_Iostream_error_category::`RTTI Class Hierarchy Descriptor'
PUBLIC	??_R2_Iostream_error_category@std@@8		; std::_Iostream_error_category::`RTTI Base Class Array'
PUBLIC	??_R1A@?0A@EA@_Iostream_error_category@std@@8	; std::_Iostream_error_category::`RTTI Base Class Descriptor at (0,-1,0,64)'
PUBLIC	??_R4failure@ios_base@std@@6B@			; std::ios_base::failure::`RTTI Complete Object Locator'
PUBLIC	??_R3failure@ios_base@std@@8			; std::ios_base::failure::`RTTI Class Hierarchy Descriptor'
PUBLIC	??_R2failure@ios_base@std@@8			; std::ios_base::failure::`RTTI Base Class Array'
PUBLIC	??_R1A@?0A@EA@failure@ios_base@std@@8		; std::ios_base::failure::`RTTI Base Class Descriptor at (0,-1,0,64)'
PUBLIC	??_R4RtAudioError@@6B@				; RtAudioError::`RTTI Complete Object Locator'
PUBLIC	??_R3RtAudioError@@8				; RtAudioError::`RTTI Class Hierarchy Descriptor'
PUBLIC	??_R2RtAudioError@@8				; RtAudioError::`RTTI Base Class Array'
PUBLIC	??_R1A@?0A@EA@RtAudioError@@8			; RtAudioError::`RTTI Base Class Descriptor at (0,-1,0,64)'
PUBLIC	??_R4?$num_put@DV?$ostreambuf_iterator@DU?$char_traits@D@std@@@std@@@std@@6B@ ; std::num_put<char,std::ostreambuf_iterator<char,std::char_traits<char> > >::`RTTI Complete Object Locator'
PUBLIC	??_R0?AV?$num_put@DV?$ostreambuf_iterator@DU?$char_traits@D@std@@@std@@@std@@@8 ; std::num_put<char,std::ostreambuf_iterator<char,std::char_traits<char> > > `RTTI Type Descriptor'
PUBLIC	??_R3?$num_put@DV?$ostreambuf_iterator@DU?$char_traits@D@std@@@std@@@std@@8 ; std::num_put<char,std::ostreambuf_iterator<char,std::char_traits<char> > >::`RTTI Class Hierarchy Descriptor'
PUBLIC	??_R2?$num_put@DV?$ostreambuf_iterator@DU?$char_traits@D@std@@@std@@@std@@8 ; std::num_put<char,std::ostreambuf_iterator<char,std::char_traits<char> > >::`RTTI Base Class Array'
PUBLIC	??_R1A@?0A@EA@?$num_put@DV?$ostreambuf_iterator@DU?$char_traits@D@std@@@std@@@std@@8 ; std::num_put<char,std::ostreambuf_iterator<char,std::char_traits<char> > >::`RTTI Base Class Descriptor at (0,-1,0,64)'
PUBLIC	??_R4RtApi@@6B@					; RtApi::`RTTI Complete Object Locator'
PUBLIC	??_R0?AVRtApi@@@8				; RtApi `RTTI Type Descriptor'
PUBLIC	??_R3RtApi@@8					; RtApi::`RTTI Class Hierarchy Descriptor'
PUBLIC	??_R2RtApi@@8					; RtApi::`RTTI Base Class Array'
PUBLIC	??_R1A@?0A@EA@RtApi@@8				; RtApi::`RTTI Base Class Descriptor at (0,-1,0,64)'
PUBLIC	??_R4RtApiDs@@6B@				; RtApiDs::`RTTI Complete Object Locator'
PUBLIC	??_R0?AVRtApiDs@@@8				; RtApiDs `RTTI Type Descriptor'
PUBLIC	??_R3RtApiDs@@8					; RtApiDs::`RTTI Class Hierarchy Descriptor'
PUBLIC	??_R2RtApiDs@@8					; RtApiDs::`RTTI Base Class Array'
PUBLIC	??_R1A@?0A@EA@RtApiDs@@8			; RtApiDs::`RTTI Base Class Descriptor at (0,-1,0,64)'
PUBLIC	??_R4?$numpunct@D@std@@6B@			; std::numpunct<char>::`RTTI Complete Object Locator'
PUBLIC	??_R0?AV?$numpunct@D@std@@@8			; std::numpunct<char> `RTTI Type Descriptor'
PUBLIC	??_R3?$numpunct@D@std@@8			; std::numpunct<char>::`RTTI Class Hierarchy Descriptor'
PUBLIC	??_R2?$numpunct@D@std@@8			; std::numpunct<char>::`RTTI Base Class Array'
PUBLIC	??_R1A@?0A@EA@?$numpunct@D@std@@8		; std::numpunct<char>::`RTTI Base Class Descriptor at (0,-1,0,64)'
PUBLIC	__real@0000000000000000
PUBLIC	__real@30000000
PUBLIC	__real@34000001
PUBLIC	__real@38000080
PUBLIC	__real@3c008081
PUBLIC	__real@3e00000000100000
PUBLIC	__real@3e80000010000010
PUBLIC	__real@3f00001000100010
PUBLIC	__real@3f80101010101010
PUBLIC	__real@3fe0000000000000
PUBLIC	__real@3ff0000000000000
PUBLIC	__real@405fe00000000000
PUBLIC	__real@408f400000000000
PUBLIC	__real@40dfffe000000000
PUBLIC	__real@415fffffe0000000
PUBLIC	__real@41dfffffffe00000
PUBLIC	__real@4202a05f20000000
EXTRN	??_L@YAXPEAX_K1P6AX0@Z2@Z:PROC			; `eh vector constructor iterator'
EXTRN	??_M@YAXPEAX_K1P6AX0@Z@Z:PROC			; `eh vector destructor iterator'
EXTRN	_purecall:PROC
EXTRN	??2@YAPEAX_K@Z:PROC				; operator new
EXTRN	??3@YAXPEAX@Z:PROC				; operator delete
EXTRN	??3@YAXPEAX_K@Z:PROC				; operator delete
EXTRN	??_V@YAXPEAX@Z:PROC				; operator delete[]
EXTRN	atexit:PROC
EXTRN	_Init_thread_header:PROC
EXTRN	_Init_thread_abort:PROC
EXTRN	_Init_thread_footer:PROC
EXTRN	_invalid_parameter_noinfo_noreturn:PROC
EXTRN	??0_Lockit@std@@QEAA@H@Z:PROC			; std::_Lockit::_Lockit
EXTRN	??1_Lockit@std@@QEAA@XZ:PROC			; std::_Lockit::~_Lockit
EXTRN	abs:PROC
EXTRN	fabs:PROC
EXTRN	frexp:PROC
EXTRN	calloc:PROC
EXTRN	free:PROC
EXTRN	__stdio_common_vsprintf_s:PROC
EXTRN	memcmp:PROC
EXTRN	memcpy:PROC
EXTRN	memmove:PROC
EXTRN	memset:PROC
EXTRN	strcspn:PROC
EXTRN	strlen:PROC
EXTRN	?uncaught_exception@std@@YA_NXZ:PROC		; std::uncaught_exception
EXTRN	__std_exception_copy:PROC
EXTRN	__std_exception_destroy:PROC
EXTRN	??_Eexception@std@@UEAAPEAXI@Z:PROC		; std::exception::`vector deleting destructor'
EXTRN	?_Xbad_alloc@std@@YAXXZ:PROC			; std::_Xbad_alloc
EXTRN	?_Xlength_error@std@@YAXPEBD@Z:PROC		; std::_Xlength_error
EXTRN	?_Xout_of_range@std@@YAXPEBD@Z:PROC		; std::_Xout_of_range
EXTRN	??_Eruntime_error@std@@UEAAPEAXI@Z:PROC		; std::runtime_error::`vector deleting destructor'
EXTRN	??_Ebad_cast@std@@UEAAPEAXI@Z:PROC		; std::bad_cast::`vector deleting destructor'
EXTRN	localeconv:PROC
EXTRN	_Getctype:PROC
EXTRN	_Getcvt:PROC
EXTRN	_Tolower:PROC
EXTRN	_Toupper:PROC
EXTRN	?_Locinfo_ctor@_Locinfo@std@@SAXPEAV12@PEBD@Z:PROC ; std::_Locinfo::_Locinfo_ctor
EXTRN	?_Locinfo_dtor@_Locinfo@std@@SAXPEAV12@@Z:PROC	; std::_Locinfo::_Locinfo_dtor
EXTRN	??_E_Facet_base@std@@UEAAPEAXI@Z:PROC		; std::_Facet_base::`vector deleting destructor'
EXTRN	?_Facet_Register@std@@YAXPEAV_Facet_base@1@@Z:PROC ; std::_Facet_Register
EXTRN	??_Efacet@locale@std@@MEAAPEAXI@Z:PROC		; std::locale::facet::`vector deleting destructor'
EXTRN	?_Init@locale@std@@CAPEAV_Locimp@12@_N@Z:PROC	; std::locale::_Init
EXTRN	?_Getgloballocale@locale@std@@CAPEAV_Locimp@12@XZ:PROC ; std::locale::_Getgloballocale
EXTRN	??_Ectype_base@std@@UEAAPEAXI@Z:PROC		; std::ctype_base::`vector deleting destructor'
EXTRN	??_E?$ctype@D@std@@MEAAPEAXI@Z:PROC		; std::ctype<char>::`vector deleting destructor'
EXTRN	??_Eerror_category@std@@UEAAPEAXI@Z:PROC	; std::error_category::`vector deleting destructor'
EXTRN	??_E_System_error@std@@UEAAPEAXI@Z:PROC		; std::_System_error::`vector deleting destructor'
EXTRN	??_Esystem_error@std@@UEAAPEAXI@Z:PROC		; std::system_error::`vector deleting destructor'
EXTRN	?_Syserror_map@std@@YAPEBDH@Z:PROC		; std::_Syserror_map
EXTRN	??_E_Generic_error_category@std@@UEAAPEAXI@Z:PROC ; std::_Generic_error_category::`vector deleting destructor'
EXTRN	??_E_Iostream_error_category@std@@UEAAPEAXI@Z:PROC ; std::_Iostream_error_category::`vector deleting destructor'
EXTRN	??_Efailure@ios_base@std@@UEAAPEAXI@Z:PROC	; std::ios_base::failure::`vector deleting destructor'
EXTRN	?_Addstd@ios_base@std@@SAXPEAV12@@Z:PROC	; std::ios_base::_Addstd
EXTRN	?_Ios_base_dtor@ios_base@std@@CAXPEAV12@@Z:PROC	; std::ios_base::_Ios_base_dtor
EXTRN	??_Eios_base@std@@UEAAPEAXI@Z:PROC		; std::ios_base::`vector deleting destructor'
EXTRN	??_ERtAudioError@@UEAAPEAXI@Z:PROC		; RtAudioError::`vector deleting destructor'
EXTRN	??_E?$basic_ios@DU?$char_traits@D@std@@@std@@UEAAPEAXI@Z:PROC ; std::basic_ios<char,std::char_traits<char> >::`vector deleting destructor'
EXTRN	??_E?$basic_ostream@DU?$char_traits@D@std@@@std@@UEAAPEAXI@Z:PROC ; std::basic_ostream<char,std::char_traits<char> >::`vector deleting destructor'
EXTRN	__imp_CloseHandle:PROC
EXTRN	__imp_InitializeCriticalSection:PROC
EXTRN	__imp_EnterCriticalSection:PROC
EXTRN	__imp_LeaveCriticalSection:PROC
EXTRN	__imp_DeleteCriticalSection:PROC
EXTRN	__imp_SetEvent:PROC
EXTRN	__imp_ResetEvent:PROC
EXTRN	__imp_WaitForSingleObject:PROC
EXTRN	__imp_CreateEventA:PROC
EXTRN	__imp_Sleep:PROC
EXTRN	__imp_SetThreadPriority:PROC
EXTRN	__imp_GetDesktopWindow:PROC
EXTRN	__imp_timeBeginPeriod:PROC
EXTRN	__imp_timeEndPeriod:PROC
EXTRN	__imp_CoUninitialize:PROC
EXTRN	__imp_CoInitialize:PROC
EXTRN	_beginthreadex:PROC
EXTRN	_endthreadex:PROC
EXTRN	??_E?$basic_streambuf@DU?$char_traits@D@std@@@std@@UEAAPEAXI@Z:PROC ; std::basic_streambuf<char,std::char_traits<char> >::`vector deleting destructor'
EXTRN	??_E?$basic_stringbuf@DU?$char_traits@D@std@@V?$allocator@D@2@@std@@UEAAPEAXI@Z:PROC ; std::basic_stringbuf<char,std::char_traits<char>,std::allocator<char> >::`vector deleting destructor'
EXTRN	??_E?$basic_ostringstream@DU?$char_traits@D@std@@V?$allocator@D@2@@std@@UEAAPEAXI@Z:PROC ; std::basic_ostringstream<char,std::char_traits<char>,std::allocator<char> >::`vector deleting destructor'
EXTRN	??_ERtApi@@UEAAPEAXI@Z:PROC			; RtApi::`vector deleting destructor'
EXTRN	??_ERtApiDs@@UEAAPEAXI@Z:PROC			; RtApiDs::`vector deleting destructor'
EXTRN	DirectSoundCreate:PROC
EXTRN	DirectSoundEnumerateA:PROC
EXTRN	DirectSoundCaptureCreate:PROC
EXTRN	DirectSoundCaptureEnumerateA:PROC
EXTRN	??_E?$num_put@DV?$ostreambuf_iterator@DU?$char_traits@D@std@@@std@@@std@@MEAAPEAXI@Z:PROC ; std::num_put<char,std::ostreambuf_iterator<char,std::char_traits<char> > >::`vector deleting destructor'
EXTRN	??_E?$numpunct@D@std@@MEAAPEAXI@Z:PROC		; std::numpunct<char>::`vector deleting destructor'
EXTRN	_CxxThrowException:PROC
EXTRN	__CxxFrameHandler3:PROC
EXTRN	__GSHandlerCheck:PROC
EXTRN	__GSHandlerCheck_EH:PROC
EXTRN	__security_check_cookie:PROC
EXTRN	_Init_thread_epoch:DWORD
EXTRN	?_BADOFF@std@@3_JB:QWORD			; std::_BADOFF
EXTRN	??_7type_info@@6B@:BYTE				; type_info::`vftable'
EXTRN	?_Id_cnt@id@locale@std@@0HA:DWORD		; std::locale::id::_Id_cnt
EXTRN	?id@?$ctype@D@std@@2V0locale@2@A:QWORD		; std::ctype<char>::id
EXTRN	?cerr@std@@3V?$basic_ostream@DU?$char_traits@D@std@@@1@A:BYTE ; std::cerr
EXTRN	__ImageBase:BYTE
EXTRN	__security_cookie:QWORD
EXTRN	_fltused:DWORD
EXTRN	_tls_index:DWORD
;	COMDAT ?_OptionsStorage@?1??__local_stdio_printf_options@@9@4_KA
_BSS	SEGMENT
?_OptionsStorage@?1??__local_stdio_printf_options@@9@4_KA DQ 01H DUP (?) ; `__local_stdio_printf_options'::`2'::_OptionsStorage
_BSS	ENDS
;	COMDAT ?id@?$num_put@DV?$ostreambuf_iterator@DU?$char_traits@D@std@@@std@@@std@@2V0locale@2@A
_BSS	SEGMENT
?id@?$num_put@DV?$ostreambuf_iterator@DU?$char_traits@D@std@@@std@@@std@@2V0locale@2@A DQ 01H DUP (?) ; std::num_put<char,std::ostreambuf_iterator<char,std::char_traits<char> > >::id
_BSS	ENDS
;	COMDAT ?id@?$numpunct@D@std@@2V0locale@2@A
_BSS	SEGMENT
?id@?$numpunct@D@std@@2V0locale@2@A DQ 01H DUP (?)	; std::numpunct<char>::id
_BSS	ENDS
;	COMDAT ?_Psave@?$_Facetptr@V?$ctype@D@std@@@std@@2PEBVfacet@locale@2@EB
_BSS	SEGMENT
?_Psave@?$_Facetptr@V?$ctype@D@std@@@std@@2PEBVfacet@locale@2@EB DQ 01H DUP (?) ; std::_Facetptr<std::ctype<char> >::_Psave
_BSS	ENDS
;	COMDAT ?_Static@?1???$_Immortalize@V_Iostream_error_category@std@@@std@@YAAEAV_Iostream_error_category@1@XZ@4U?$_Immortalizer@V_Iostream_error_category@std@@@1@A
_BSS	SEGMENT
?_Static@?1???$_Immortalize@V_Iostream_error_category@std@@@std@@YAAEAV_Iostream_error_category@1@XZ@4U?$_Immortalizer@V_Iostream_error_category@std@@@1@A DB 010H DUP (?) ; `std::_Immortalize<std::_Iostream_error_category>'::`2'::_Static
_BSS	ENDS
;	COMDAT ?$TSS0@?1???$_Immortalize@V_Iostream_error_category@std@@@std@@YAAEAV_Iostream_error_category@1@XZ@4HA
_BSS	SEGMENT
?$TSS0@?1???$_Immortalize@V_Iostream_error_category@std@@@std@@YAAEAV_Iostream_error_category@1@XZ@4HA DD 01H DUP (?) ; TSS0<`template-parameter-2',unsigned int,std::V_Iostream_error_category::mortalize>
_BSS	ENDS
;	COMDAT ?_Psave@?$_Facetptr@V?$num_put@DV?$ostreambuf_iterator@DU?$char_traits@D@std@@@std@@@std@@@std@@2PEBVfacet@locale@2@EB
_BSS	SEGMENT
?_Psave@?$_Facetptr@V?$num_put@DV?$ostreambuf_iterator@DU?$char_traits@D@std@@@std@@@std@@@std@@2PEBVfacet@locale@2@EB DQ 01H DUP (?) ; std::_Facetptr<std::num_put<char,std::ostreambuf_iterator<char,std::char_traits<char> > > >::_Psave
_BSS	ENDS
;	COMDAT ?_Psave@?$_Facetptr@V?$numpunct@D@std@@@std@@2PEBVfacet@locale@2@EB
_BSS	SEGMENT
?_Psave@?$_Facetptr@V?$numpunct@D@std@@@std@@2PEBVfacet@locale@2@EB DQ 01H DUP (?) ; std::_Facetptr<std::numpunct<char> >::_Psave
_BSS	ENDS
;	COMDAT pdata
pdata	SEGMENT
$pdata$fabsl DD	imagerel $LN3
	DD	imagerel $LN3+26
	DD	imagerel $unwind$fabsl
pdata	ENDS
;	COMDAT pdata
pdata	SEGMENT
$pdata$frexpl DD imagerel $LN3
	DD	imagerel $LN3+36
	DD	imagerel $unwind$frexpl
pdata	ENDS
;	COMDAT pdata
pdata	SEGMENT
$pdata$_vsprintf_s_l DD imagerel $LN5
	DD	imagerel $LN5+110
	DD	imagerel $unwind$_vsprintf_s_l
pdata	ENDS
;	COMDAT pdata
pdata	SEGMENT
$pdata$sprintf_s DD imagerel $LN3
	DD	imagerel $LN3+94
	DD	imagerel $unwind$sprintf_s
pdata	ENDS
;	COMDAT pdata
pdata	SEGMENT
$pdata$??0exception@std@@QEAA@QEBD@Z DD imagerel $LN3
	DD	imagerel $LN3+99
	DD	imagerel $unwind$??0exception@std@@QEAA@QEBD@Z
pdata	ENDS
;	COMDAT pdata
pdata	SEGMENT
$pdata$??0exception@std@@QEAA@QEBDH@Z DD imagerel $LN3
	DD	imagerel $LN3+73
	DD	imagerel $unwind$??0exception@std@@QEAA@QEBDH@Z
pdata	ENDS
;	COMDAT pdata
pdata	SEGMENT
$pdata$??0exception@std@@QEAA@AEBV01@@Z DD imagerel $LN3
	DD	imagerel $LN3+88
	DD	imagerel $unwind$??0exception@std@@QEAA@AEBV01@@Z
pdata	ENDS
;	COMDAT pdata
pdata	SEGMENT
$pdata$??1exception@std@@UEAA@XZ DD imagerel $LN3
	DD	imagerel $LN3+46
	DD	imagerel $unwind$??1exception@std@@UEAA@XZ
pdata	ENDS
;	COMDAT pdata
pdata	SEGMENT
$pdata$?what@exception@std@@UEBAPEBDXZ DD imagerel $LN5
	DD	imagerel $LN5+56
	DD	imagerel $unwind$?what@exception@std@@UEBAPEBDXZ
pdata	ENDS
;	COMDAT pdata
pdata	SEGMENT
$pdata$??_Gexception@std@@UEAAPEAXI@Z DD imagerel $LN4
	DD	imagerel $LN4+59
	DD	imagerel $unwind$??_Gexception@std@@UEAAPEAXI@Z
pdata	ENDS
;	COMDAT pdata
pdata	SEGMENT
$pdata$?compare@?$char_traits@D@std@@SAHPEBD0_K@Z DD imagerel $LN5
	DD	imagerel $LN5+70
	DD	imagerel $unwind$?compare@?$char_traits@D@std@@SAHPEBD0_K@Z
pdata	ENDS
;	COMDAT pdata
pdata	SEGMENT
$pdata$?length@?$char_traits@D@std@@SA_KPEBD@Z DD imagerel $LN5
	DD	imagerel $LN5+57
	DD	imagerel $unwind$?length@?$char_traits@D@std@@SA_KPEBD@Z
pdata	ENDS
;	COMDAT pdata
pdata	SEGMENT
$pdata$?copy@?$char_traits@D@std@@SAPEADPEADPEBD_K@Z DD imagerel $LN5
	DD	imagerel $LN5+74
	DD	imagerel $unwind$?copy@?$char_traits@D@std@@SAPEADPEADPEBD_K@Z
pdata	ENDS
;	COMDAT pdata
pdata	SEGMENT
$pdata$?move@?$char_traits@D@std@@SAPEADPEADPEBD_K@Z DD imagerel $LN5
	DD	imagerel $LN5+74
	DD	imagerel $unwind$?move@?$char_traits@D@std@@SAPEADPEADPEBD_K@Z
pdata	ENDS
;	COMDAT pdata
pdata	SEGMENT
$pdata$?assign@?$char_traits@D@std@@SAPEADPEAD_KD@Z DD imagerel $LN3
	DD	imagerel $LN3+46
	DD	imagerel $unwind$?assign@?$char_traits@D@std@@SAPEADPEAD_KD@Z
pdata	ENDS
;	COMDAT pdata
pdata	SEGMENT
$pdata$?eq@?$char_traits@D@std@@SA_NAEBD0@Z DD imagerel $LN5
	DD	imagerel $LN5+59
	DD	imagerel $unwind$?eq@?$char_traits@D@std@@SA_NAEBD0@Z
pdata	ENDS
;	COMDAT pdata
pdata	SEGMENT
$pdata$?eq_int_type@?$char_traits@D@std@@SA_NAEBH0@Z DD imagerel $LN5
	DD	imagerel $LN5+55
	DD	imagerel $unwind$?eq_int_type@?$char_traits@D@std@@SA_NAEBH0@Z
pdata	ENDS
;	COMDAT pdata
pdata	SEGMENT
$pdata$?not_eof@?$char_traits@D@std@@SAHAEBH@Z DD imagerel $LN7
	DD	imagerel $LN7+80
	DD	imagerel $unwind$?not_eof@?$char_traits@D@std@@SAHAEBH@Z
pdata	ENDS
;	COMDAT pdata
pdata	SEGMENT
$pdata$?_Allocate@std@@YAPEAX_K0_N@Z DD imagerel $LN10
	DD	imagerel $LN10+248
	DD	imagerel $unwind$?_Allocate@std@@YAPEAX_K0_N@Z
pdata	ENDS
;	COMDAT pdata
pdata	SEGMENT
$pdata$?_Deallocate@std@@YAXPEAX_K1@Z DD imagerel $LN9
	DD	imagerel $LN9+228
	DD	imagerel $unwind$?_Deallocate@std@@YAXPEAX_K1@Z
pdata	ENDS
;	COMDAT pdata
pdata	SEGMENT
$pdata$?deallocate@?$allocator@D@std@@QEAAXPEAD_K@Z DD imagerel $LN3
	DD	imagerel $LN3+45
	DD	imagerel $unwind$?deallocate@?$allocator@D@std@@QEAAXPEAD_K@Z
pdata	ENDS
;	COMDAT pdata
pdata	SEGMENT
$pdata$?allocate@?$allocator@D@std@@QEAAPEAD_K@Z DD imagerel $LN3
	DD	imagerel $LN3+37
	DD	imagerel $unwind$?allocate@?$allocator@D@std@@QEAAPEAD_K@Z
pdata	ENDS
;	COMDAT pdata
pdata	SEGMENT
$pdata$?max_size@?$allocator_traits@V?$allocator@D@std@@@std@@SA_KAEBV?$allocator@D@2@@Z DD imagerel $LN3
	DD	imagerel $LN3+24
	DD	imagerel $unwind$?max_size@?$allocator_traits@V?$allocator@D@std@@@std@@SA_KAEBV?$allocator@D@2@@Z
pdata	ENDS
;	COMDAT pdata
pdata	SEGMENT
$pdata$?select_on_container_copy_construction@?$allocator_traits@V?$allocator@D@std@@@std@@SA?AV?$allocator@D@2@AEBV32@@Z DD imagerel $LN3
	DD	imagerel $LN3+39
	DD	imagerel $unwind$?select_on_container_copy_construction@?$allocator_traits@V?$allocator@D@std@@@std@@SA?AV?$allocator@D@2@AEBV32@@Z
pdata	ENDS
;	COMDAT pdata
pdata	SEGMENT
$pdata$?select_on_container_copy_construction@?$_Wrap_alloc@V?$allocator@D@std@@@std@@QEBA?AU12@U_Nil@2@@Z DD imagerel $LN3
	DD	imagerel $LN3+57
	DD	imagerel $unwind$?select_on_container_copy_construction@?$_Wrap_alloc@V?$allocator@D@std@@@std@@QEBA?AU12@U_Nil@2@@Z
pdata	ENDS
;	COMDAT pdata
pdata	SEGMENT
$pdata$?address@?$_Wrap_alloc@V?$allocator@D@std@@@std@@QEBAPEADAEAD@Z DD imagerel $LN3
	DD	imagerel $LN3+29
	DD	imagerel $unwind$?address@?$_Wrap_alloc@V?$allocator@D@std@@@std@@QEBAPEADAEAD@Z
pdata	ENDS
;	COMDAT pdata
pdata	SEGMENT
$pdata$??0?$_Wrap_alloc@V?$allocator@D@std@@@std@@QEAA@XZ DD imagerel $LN3
	DD	imagerel $LN3+29
	DD	imagerel $unwind$??0?$_Wrap_alloc@V?$allocator@D@std@@@std@@QEAA@XZ
pdata	ENDS
;	COMDAT pdata
pdata	SEGMENT
$pdata$??0?$_Wrap_alloc@V?$allocator@D@std@@@std@@QEAA@$$QEAU01@@Z DD imagerel $LN3
	DD	imagerel $LN3+47
	DD	imagerel $unwind$??0?$_Wrap_alloc@V?$allocator@D@std@@@std@@QEAA@$$QEAU01@@Z
pdata	ENDS
;	COMDAT pdata
pdata	SEGMENT
$pdata$??4?$_Wrap_alloc@V?$allocator@D@std@@@std@@QEAAAEAU01@$$QEAU01@@Z DD imagerel $LN3
	DD	imagerel $LN3+34
	DD	imagerel $unwind$??4?$_Wrap_alloc@V?$allocator@D@std@@@std@@QEAAAEAU01@$$QEAU01@@Z
pdata	ENDS
;	COMDAT pdata
pdata	SEGMENT
$pdata$?allocate@?$_Wrap_alloc@V?$allocator@D@std@@@std@@QEAAPEAD_K@Z DD imagerel $LN3
	DD	imagerel $LN3+34
	DD	imagerel $unwind$?allocate@?$_Wrap_alloc@V?$allocator@D@std@@@std@@QEAAPEAD_K@Z
pdata	ENDS
;	COMDAT pdata
pdata	SEGMENT
$pdata$?deallocate@?$_Wrap_alloc@V?$allocator@D@std@@@std@@QEAAXPEAD_K@Z DD imagerel $LN3
	DD	imagerel $LN3+44
	DD	imagerel $unwind$?deallocate@?$_Wrap_alloc@V?$allocator@D@std@@@std@@QEAAXPEAD_K@Z
pdata	ENDS
;	COMDAT pdata
pdata	SEGMENT
$pdata$?max_size@?$_Wrap_alloc@V?$allocator@D@std@@@std@@QEBA_KU_Nil@2@@Z DD imagerel $LN3
	DD	imagerel $LN3+28
	DD	imagerel $unwind$?max_size@?$_Wrap_alloc@V?$allocator@D@std@@@std@@QEBA_KU_Nil@2@@Z
pdata	ENDS
;	COMDAT pdata
pdata	SEGMENT
$pdata$??0?$_String_val@U?$_Simple_types@D@std@@@std@@QEAA@XZ DD imagerel $LN4
	DD	imagerel $LN4+58
	DD	imagerel $unwind$??0?$_String_val@U?$_Simple_types@D@std@@@std@@QEAA@XZ
pdata	ENDS
;	COMDAT pdata
pdata	SEGMENT
$pdata$?_Myptr@?$_String_val@U?$_Simple_types@D@std@@@std@@QEAAPEADXZ DD imagerel $LN5
	DD	imagerel $LN5+61
	DD	imagerel $unwind$?_Myptr@?$_String_val@U?$_Simple_types@D@std@@@std@@QEAAPEADXZ
pdata	ENDS
;	COMDAT pdata
pdata	SEGMENT
$pdata$?_Myptr@?$_String_val@U?$_Simple_types@D@std@@@std@@QEBAPEBDXZ DD imagerel $LN5
	DD	imagerel $LN5+61
	DD	imagerel $unwind$?_Myptr@?$_String_val@U?$_Simple_types@D@std@@@std@@QEBAPEBDXZ
pdata	ENDS
;	COMDAT pdata
pdata	SEGMENT
$pdata$??1?$_String_val@U?$_Simple_types@D@std@@@std@@QEAA@XZ DD imagerel $LN3
	DD	imagerel $LN3+27
	DD	imagerel $unwind$??1?$_String_val@U?$_Simple_types@D@std@@@std@@QEAA@XZ
pdata	ENDS
;	COMDAT pdata
pdata	SEGMENT
$pdata$?_Myptr@?$_String_alloc@U?$_String_base_types@DV?$allocator@D@std@@@std@@@std@@QEAAPEADXZ DD imagerel $LN3
	DD	imagerel $LN3+32
	DD	imagerel $unwind$?_Myptr@?$_String_alloc@U?$_String_base_types@DV?$allocator@D@std@@@std@@@std@@QEAAPEADXZ
pdata	ENDS
;	COMDAT pdata
pdata	SEGMENT
$pdata$?_Myptr@?$_String_alloc@U?$_String_base_types@DV?$allocator@D@std@@@std@@@std@@QEBAPEBDXZ DD imagerel $LN3
	DD	imagerel $LN3+32
	DD	imagerel $unwind$?_Myptr@?$_String_alloc@U?$_String_base_types@DV?$allocator@D@std@@@std@@@std@@QEBAPEBDXZ
pdata	ENDS
;	COMDAT pdata
pdata	SEGMENT
$pdata$??0?$_String_alloc@U?$_String_base_types@DV?$allocator@D@std@@@std@@@std@@QEAA@XZ DD imagerel $LN4
	DD	imagerel $LN4+37
	DD	imagerel $unwind$??0?$_String_alloc@U?$_String_base_types@DV?$allocator@D@std@@@std@@@std@@QEAA@XZ
pdata	ENDS
;	COMDAT pdata
pdata	SEGMENT
$pdata$?_Copy_alloc@?$_String_alloc@U?$_String_base_types@DV?$allocator@D@std@@@std@@@std@@QEAAXAEBU?$_Wrap_alloc@V?$allocator@D@std@@@2@@Z DD imagerel $LN3
	DD	imagerel $LN3+42
	DD	imagerel $unwind$?_Copy_alloc@?$_String_alloc@U?$_String_base_types@DV?$allocator@D@std@@@std@@@std@@QEAAXAEBU?$_Wrap_alloc@V?$allocator@D@std@@@2@@Z
pdata	ENDS
;	COMDAT pdata
pdata	SEGMENT
$pdata$?_Move_alloc@?$_String_alloc@U?$_String_base_types@DV?$allocator@D@std@@@std@@@std@@QEAAXAEAU?$_Wrap_alloc@V?$allocator@D@std@@@2@@Z DD imagerel $LN3
	DD	imagerel $LN3+42
	DD	imagerel $unwind$?_Move_alloc@?$_String_alloc@U?$_String_base_types@DV?$allocator@D@std@@@std@@@std@@QEAAXAEAU?$_Wrap_alloc@V?$allocator@D@std@@@2@@Z
pdata	ENDS
;	COMDAT pdata
pdata	SEGMENT
$pdata$?_Getal@?$_String_alloc@U?$_String_base_types@DV?$allocator@D@std@@@std@@@std@@QEAAAEAU?$_Wrap_alloc@V?$allocator@D@std@@@2@XZ DD imagerel $LN3
	DD	imagerel $LN3+27
	DD	imagerel $unwind$?_Getal@?$_String_alloc@U?$_String_base_types@DV?$allocator@D@std@@@std@@@std@@QEAAAEAU?$_Wrap_alloc@V?$allocator@D@std@@@2@XZ
pdata	ENDS
;	COMDAT pdata
pdata	SEGMENT
$pdata$?_Getal@?$_String_alloc@U?$_String_base_types@DV?$allocator@D@std@@@std@@@std@@QEBAAEBU?$_Wrap_alloc@V?$allocator@D@std@@@2@XZ DD imagerel $LN3
	DD	imagerel $LN3+27
	DD	imagerel $unwind$?_Getal@?$_String_alloc@U?$_String_base_types@DV?$allocator@D@std@@@std@@@std@@QEBAAEBU?$_Wrap_alloc@V?$allocator@D@std@@@2@XZ
pdata	ENDS
;	COMDAT pdata
pdata	SEGMENT
$pdata$?_Get_data@?$_String_alloc@U?$_String_base_types@DV?$allocator@D@std@@@std@@@std@@QEAAAEAV?$_String_val@U?$_Simple_types@D@std@@@2@XZ DD imagerel $LN3
	DD	imagerel $LN3+27
	DD	imagerel $unwind$?_Get_data@?$_String_alloc@U?$_String_base_types@DV?$allocator@D@std@@@std@@@std@@QEAAAEAV?$_String_val@U?$_Simple_types@D@std@@@2@XZ
pdata	ENDS
;	COMDAT pdata
pdata	SEGMENT
$pdata$?_Get_data@?$_String_alloc@U?$_String_base_types@DV?$allocator@D@std@@@std@@@std@@QEBAAEBV?$_String_val@U?$_Simple_types@D@std@@@2@XZ DD imagerel $LN3
	DD	imagerel $LN3+27
	DD	imagerel $unwind$?_Get_data@?$_String_alloc@U?$_String_base_types@DV?$allocator@D@std@@@std@@@std@@QEBAAEBV?$_String_val@U?$_Simple_types@D@std@@@2@XZ
pdata	ENDS
;	COMDAT pdata
pdata	SEGMENT
$pdata$?_Bx@?$_String_alloc@U?$_String_base_types@DV?$allocator@D@std@@@std@@@std@@QEAAAEAT_Bxty@?$_String_val@U?$_Simple_types@D@std@@@2@XZ DD imagerel $LN3
	DD	imagerel $LN3+24
	DD	imagerel $unwind$?_Bx@?$_String_alloc@U?$_String_base_types@DV?$allocator@D@std@@@std@@@std@@QEAAAEAT_Bxty@?$_String_val@U?$_Simple_types@D@std@@@2@XZ
pdata	ENDS
;	COMDAT pdata
pdata	SEGMENT
$pdata$?_Mysize@?$_String_alloc@U?$_String_base_types@DV?$allocator@D@std@@@std@@@std@@QEAAAEA_KXZ DD imagerel $LN3
	DD	imagerel $LN3+28
	DD	imagerel $unwind$?_Mysize@?$_String_alloc@U?$_String_base_types@DV?$allocator@D@std@@@std@@@std@@QEAAAEA_KXZ
pdata	ENDS
;	COMDAT pdata
pdata	SEGMENT
$pdata$?_Mysize@?$_String_alloc@U?$_String_base_types@DV?$allocator@D@std@@@std@@@std@@QEBAAEB_KXZ DD imagerel $LN3
	DD	imagerel $LN3+28
	DD	imagerel $unwind$?_Mysize@?$_String_alloc@U?$_String_base_types@DV?$allocator@D@std@@@std@@@std@@QEBAAEB_KXZ
pdata	ENDS
;	COMDAT pdata
pdata	SEGMENT
$pdata$?_Myres@?$_String_alloc@U?$_String_base_types@DV?$allocator@D@std@@@std@@@std@@QEAAAEA_KXZ DD imagerel $LN3
	DD	imagerel $LN3+28
	DD	imagerel $unwind$?_Myres@?$_String_alloc@U?$_String_base_types@DV?$allocator@D@std@@@std@@@std@@QEAAAEA_KXZ
pdata	ENDS
;	COMDAT pdata
pdata	SEGMENT
$pdata$??1?$_Compressed_pair@U?$_Wrap_alloc@V?$allocator@D@std@@@std@@V?$_String_val@U?$_Simple_types@D@std@@@2@$00@std@@QEAA@XZ DD imagerel $LN3
	DD	imagerel $LN3+27
	DD	imagerel $unwind$??1?$_Compressed_pair@U?$_Wrap_alloc@V?$allocator@D@std@@@std@@V?$_String_val@U?$_Simple_types@D@std@@@2@$00@std@@QEAA@XZ
pdata	ENDS
;	COMDAT pdata
pdata	SEGMENT
$pdata$??1?$_String_alloc@U?$_String_base_types@DV?$allocator@D@std@@@std@@@std@@QEAA@XZ DD imagerel $LN3
	DD	imagerel $LN3+27
	DD	imagerel $unwind$??1?$_String_alloc@U?$_String_base_types@DV?$allocator@D@std@@@std@@@std@@QEAA@XZ
pdata	ENDS
;	COMDAT pdata
pdata	SEGMENT
$pdata$??0?$basic_string@DU?$char_traits@D@std@@V?$allocator@D@2@@std@@QEAA@AEBV01@@Z DD imagerel $LN4
	DD	imagerel $LN4+117
	DD	imagerel $unwind$??0?$basic_string@DU?$char_traits@D@std@@V?$allocator@D@2@@std@@QEAA@AEBV01@@Z
pdata	ENDS
;	COMDAT pdata
pdata	SEGMENT
$pdata$?dtor$0@?0???0?$basic_string@DU?$char_traits@D@std@@V?$allocator@D@2@@std@@QEAA@AEBV01@@Z@4HA DD imagerel ?dtor$0@?0???0?$basic_string@DU?$char_traits@D@std@@V?$allocator@D@2@@std@@QEAA@AEBV01@@Z@4HA
	DD	imagerel ?dtor$0@?0???0?$basic_string@DU?$char_traits@D@std@@V?$allocator@D@2@@std@@QEAA@AEBV01@@Z@4HA+24
	DD	imagerel $unwind$?dtor$0@?0???0?$basic_string@DU?$char_traits@D@std@@V?$allocator@D@2@@std@@QEAA@AEBV01@@Z@4HA
pdata	ENDS
;	COMDAT pdata
pdata	SEGMENT
$pdata$??0?$basic_string@DU?$char_traits@D@std@@V?$allocator@D@2@@std@@QEAA@XZ DD imagerel $LN3
	DD	imagerel $LN3+55
	DD	imagerel $unwind$??0?$basic_string@DU?$char_traits@D@std@@V?$allocator@D@2@@std@@QEAA@XZ
pdata	ENDS
;	COMDAT pdata
pdata	SEGMENT
$pdata$??0?$basic_string@DU?$char_traits@D@std@@V?$allocator@D@2@@std@@QEAA@PEBD_K@Z DD imagerel $LN4
	DD	imagerel $LN4+85
	DD	imagerel $unwind$??0?$basic_string@DU?$char_traits@D@std@@V?$allocator@D@2@@std@@QEAA@PEBD_K@Z
pdata	ENDS
;	COMDAT pdata
pdata	SEGMENT
$pdata$?dtor$0@?0???0?$basic_string@DU?$char_traits@D@std@@V?$allocator@D@2@@std@@QEAA@PEBD_K@Z@4HA DD imagerel ?dtor$0@?0???0?$basic_string@DU?$char_traits@D@std@@V?$allocator@D@2@@std@@QEAA@PEBD_K@Z@4HA
	DD	imagerel ?dtor$0@?0???0?$basic_string@DU?$char_traits@D@std@@V?$allocator@D@2@@std@@QEAA@PEBD_K@Z@4HA+24
	DD	imagerel $unwind$?dtor$0@?0???0?$basic_string@DU?$char_traits@D@std@@V?$allocator@D@2@@std@@QEAA@PEBD_K@Z@4HA
pdata	ENDS
;	COMDAT pdata
pdata	SEGMENT
$pdata$??0?$basic_string@DU?$char_traits@D@std@@V?$allocator@D@2@@std@@QEAA@PEBD@Z DD imagerel $LN4
	DD	imagerel $LN4+75
	DD	imagerel $unwind$??0?$basic_string@DU?$char_traits@D@std@@V?$allocator@D@2@@std@@QEAA@PEBD@Z
pdata	ENDS
;	COMDAT pdata
pdata	SEGMENT
$pdata$?dtor$0@?0???0?$basic_string@DU?$char_traits@D@std@@V?$allocator@D@2@@std@@QEAA@PEBD@Z@4HA DD imagerel ?dtor$0@?0???0?$basic_string@DU?$char_traits@D@std@@V?$allocator@D@2@@std@@QEAA@PEBD@Z@4HA
	DD	imagerel ?dtor$0@?0???0?$basic_string@DU?$char_traits@D@std@@V?$allocator@D@2@@std@@QEAA@PEBD@Z@4HA+24
	DD	imagerel $unwind$?dtor$0@?0???0?$basic_string@DU?$char_traits@D@std@@V?$allocator@D@2@@std@@QEAA@PEBD@Z@4HA
pdata	ENDS
;	COMDAT pdata
pdata	SEGMENT
$pdata$??0?$basic_string@DU?$char_traits@D@std@@V?$allocator@D@2@@std@@QEAA@_KD@Z DD imagerel $LN4
	DD	imagerel $LN4+86
	DD	imagerel $unwind$??0?$basic_string@DU?$char_traits@D@std@@V?$allocator@D@2@@std@@QEAA@_KD@Z
pdata	ENDS
;	COMDAT pdata
pdata	SEGMENT
$pdata$?dtor$0@?0???0?$basic_string@DU?$char_traits@D@std@@V?$allocator@D@2@@std@@QEAA@_KD@Z@4HA DD imagerel ?dtor$0@?0???0?$basic_string@DU?$char_traits@D@std@@V?$allocator@D@2@@std@@QEAA@_KD@Z@4HA
	DD	imagerel ?dtor$0@?0???0?$basic_string@DU?$char_traits@D@std@@V?$allocator@D@2@@std@@QEAA@_KD@Z@4HA+24
	DD	imagerel $unwind$?dtor$0@?0???0?$basic_string@DU?$char_traits@D@std@@V?$allocator@D@2@@std@@QEAA@_KD@Z@4HA
pdata	ENDS
;	COMDAT pdata
pdata	SEGMENT
$pdata$??0?$basic_string@DU?$char_traits@D@std@@V?$allocator@D@2@@std@@QEAA@$$QEAV01@@Z DD imagerel $LN3
	DD	imagerel $LN3+108
	DD	imagerel $unwind$??0?$basic_string@DU?$char_traits@D@std@@V?$allocator@D@2@@std@@QEAA@$$QEAV01@@Z
pdata	ENDS
;	COMDAT pdata
pdata	SEGMENT
$pdata$??4?$basic_string@DU?$char_traits@D@std@@V?$allocator@D@2@@std@@QEAAAEAV01@$$QEAV01@@Z DD imagerel $LN7
	DD	imagerel $LN7+285
	DD	imagerel $unwind$??4?$basic_string@DU?$char_traits@D@std@@V?$allocator@D@2@@std@@QEAAAEAV01@$$QEAV01@@Z
pdata	ENDS
;	COMDAT pdata
pdata	SEGMENT
$pdata$?assign@?$basic_string@DU?$char_traits@D@std@@V?$allocator@D@2@@std@@QEAAAEAV12@$$QEAV12@@Z DD imagerel $LN7
	DD	imagerel $LN7+187
	DD	imagerel $unwind$?assign@?$basic_string@DU?$char_traits@D@std@@V?$allocator@D@2@@std@@QEAAAEAV12@$$QEAV12@@Z
pdata	ENDS
;	COMDAT pdata
pdata	SEGMENT
$pdata$?_Assign_rv@?$basic_string@DU?$char_traits@D@std@@V?$allocator@D@2@@std@@QEAAX$$QEAV12@@Z DD imagerel $LN5
	DD	imagerel $LN5+283
	DD	imagerel $unwind$?_Assign_rv@?$basic_string@DU?$char_traits@D@std@@V?$allocator@D@2@@std@@QEAAX$$QEAV12@@Z
pdata	ENDS
;	COMDAT pdata
pdata	SEGMENT
$pdata$??1?$basic_string@DU?$char_traits@D@std@@V?$allocator@D@2@@std@@QEAA@XZ DD imagerel $LN3
	DD	imagerel $LN3+50
	DD	imagerel $unwind$??1?$basic_string@DU?$char_traits@D@std@@V?$allocator@D@2@@std@@QEAA@XZ
pdata	ENDS
;	COMDAT pdata
pdata	SEGMENT
$pdata$??4?$basic_string@DU?$char_traits@D@std@@V?$allocator@D@2@@std@@QEAAAEAV01@AEBV01@@Z DD imagerel $LN5
	DD	imagerel $LN5+143
	DD	imagerel $unwind$??4?$basic_string@DU?$char_traits@D@std@@V?$allocator@D@2@@std@@QEAAAEAV01@AEBV01@@Z
pdata	ENDS
;	COMDAT pdata
pdata	SEGMENT
$pdata$??4?$basic_string@DU?$char_traits@D@std@@V?$allocator@D@2@@std@@QEAAAEAV01@PEBD@Z DD imagerel $LN3
	DD	imagerel $LN3+34
	DD	imagerel $unwind$??4?$basic_string@DU?$char_traits@D@std@@V?$allocator@D@2@@std@@QEAAAEAV01@PEBD@Z
pdata	ENDS
;	COMDAT pdata
pdata	SEGMENT
$pdata$?append@?$basic_string@DU?$char_traits@D@std@@V?$allocator@D@2@@std@@QEAAAEAV12@AEBV12@@Z DD imagerel $LN3
	DD	imagerel $LN3+44
	DD	imagerel $unwind$?append@?$basic_string@DU?$char_traits@D@std@@V?$allocator@D@2@@std@@QEAAAEAV12@AEBV12@@Z
pdata	ENDS
;	COMDAT pdata
pdata	SEGMENT
$pdata$?append@?$basic_string@DU?$char_traits@D@std@@V?$allocator@D@2@@std@@QEAAAEAV12@AEBV12@_K1@Z DD imagerel $LN5
	DD	imagerel $LN5+265
	DD	imagerel $unwind$?append@?$basic_string@DU?$char_traits@D@std@@V?$allocator@D@2@@std@@QEAAAEAV12@AEBV12@_K1@Z
pdata	ENDS
;	COMDAT pdata
pdata	SEGMENT
$pdata$?append@?$basic_string@DU?$char_traits@D@std@@V?$allocator@D@2@@std@@QEAAAEAV12@PEBD_K@Z DD imagerel $LN6
	DD	imagerel $LN6+268
	DD	imagerel $unwind$?append@?$basic_string@DU?$char_traits@D@std@@V?$allocator@D@2@@std@@QEAAAEAV12@PEBD_K@Z
pdata	ENDS
;	COMDAT pdata
pdata	SEGMENT
$pdata$?append@?$basic_string@DU?$char_traits@D@std@@V?$allocator@D@2@@std@@QEAAAEAV12@PEBD@Z DD imagerel $LN3
	DD	imagerel $LN3+47
	DD	imagerel $unwind$?append@?$basic_string@DU?$char_traits@D@std@@V?$allocator@D@2@@std@@QEAAAEAV12@PEBD@Z
pdata	ENDS
;	COMDAT pdata
pdata	SEGMENT
$pdata$?append@?$basic_string@DU?$char_traits@D@std@@V?$allocator@D@2@@std@@QEAAAEAV12@_KD@Z DD imagerel $LN5
	DD	imagerel $LN5+177
	DD	imagerel $unwind$?append@?$basic_string@DU?$char_traits@D@std@@V?$allocator@D@2@@std@@QEAAAEAV12@_KD@Z
pdata	ENDS
;	COMDAT pdata
pdata	SEGMENT
$pdata$?assign@?$basic_string@DU?$char_traits@D@std@@V?$allocator@D@2@@std@@QEAAAEAV12@AEBV12@@Z DD imagerel $LN3
	DD	imagerel $LN3+44
	DD	imagerel $unwind$?assign@?$basic_string@DU?$char_traits@D@std@@V?$allocator@D@2@@std@@QEAAAEAV12@AEBV12@@Z
pdata	ENDS
;	COMDAT pdata
pdata	SEGMENT
$pdata$?assign@?$basic_string@DU?$char_traits@D@std@@V?$allocator@D@2@@std@@QEAAAEAV12@AEBV12@_K1@Z DD imagerel $LN6
	DD	imagerel $LN6+225
	DD	imagerel $unwind$?assign@?$basic_string@DU?$char_traits@D@std@@V?$allocator@D@2@@std@@QEAAAEAV12@AEBV12@_K1@Z
pdata	ENDS
;	COMDAT pdata
pdata	SEGMENT
$pdata$?assign@?$basic_string@DU?$char_traits@D@std@@V?$allocator@D@2@@std@@QEAAAEAV12@PEBD_K@Z DD imagerel $LN5
	DD	imagerel $LN5+165
	DD	imagerel $unwind$?assign@?$basic_string@DU?$char_traits@D@std@@V?$allocator@D@2@@std@@QEAAAEAV12@PEBD_K@Z
pdata	ENDS
;	COMDAT pdata
pdata	SEGMENT
$pdata$?assign@?$basic_string@DU?$char_traits@D@std@@V?$allocator@D@2@@std@@QEAAAEAV12@PEBD@Z DD imagerel $LN3
	DD	imagerel $LN3+47
	DD	imagerel $unwind$?assign@?$basic_string@DU?$char_traits@D@std@@V?$allocator@D@2@@std@@QEAAAEAV12@PEBD@Z
pdata	ENDS
;	COMDAT pdata
pdata	SEGMENT
$pdata$?assign@?$basic_string@DU?$char_traits@D@std@@V?$allocator@D@2@@std@@QEAAAEAV12@_KD@Z DD imagerel $LN5
	DD	imagerel $LN5+116
	DD	imagerel $unwind$?assign@?$basic_string@DU?$char_traits@D@std@@V?$allocator@D@2@@std@@QEAAAEAV12@_KD@Z
pdata	ENDS
;	COMDAT pdata
pdata	SEGMENT
$pdata$?insert@?$basic_string@DU?$char_traits@D@std@@V?$allocator@D@2@@std@@QEAAAEAV12@_K0D@Z DD imagerel $LN5
	DD	imagerel $LN5+287
	DD	imagerel $unwind$?insert@?$basic_string@DU?$char_traits@D@std@@V?$allocator@D@2@@std@@QEAAAEAV12@_K0D@Z
pdata	ENDS
;	COMDAT pdata
pdata	SEGMENT
$pdata$?erase@?$basic_string@DU?$char_traits@D@std@@V?$allocator@D@2@@std@@QEAAAEAV12@_K@Z DD imagerel $LN3
	DD	imagerel $LN3+54
	DD	imagerel $unwind$?erase@?$basic_string@DU?$char_traits@D@std@@V?$allocator@D@2@@std@@QEAAAEAV12@_K@Z
pdata	ENDS
;	COMDAT pdata
pdata	SEGMENT
$pdata$?erase@?$basic_string@DU?$char_traits@D@std@@V?$allocator@D@2@@std@@QEAAAEAV12@_K0@Z DD imagerel $LN6
	DD	imagerel $LN6+206
	DD	imagerel $unwind$?erase@?$basic_string@DU?$char_traits@D@std@@V?$allocator@D@2@@std@@QEAAAEAV12@_K0@Z
pdata	ENDS
;	COMDAT pdata
pdata	SEGMENT
$pdata$?replace@?$basic_string@DU?$char_traits@D@std@@V?$allocator@D@2@@std@@QEAAAEAV12@_K0AEBV12@00@Z DD imagerel $LN15
	DD	imagerel $LN15+1522
	DD	imagerel $unwind$?replace@?$basic_string@DU?$char_traits@D@std@@V?$allocator@D@2@@std@@QEAAAEAV12@_K0AEBV12@00@Z
pdata	ENDS
;	COMDAT pdata
pdata	SEGMENT
$pdata$?replace@?$basic_string@DU?$char_traits@D@std@@V?$allocator@D@2@@std@@QEAAAEAV12@_K0PEBD0@Z DD imagerel $LN9
	DD	imagerel $LN9+601
	DD	imagerel $unwind$?replace@?$basic_string@DU?$char_traits@D@std@@V?$allocator@D@2@@std@@QEAAAEAV12@_K0PEBD0@Z
pdata	ENDS
;	COMDAT pdata
pdata	SEGMENT
$pdata$?replace@?$basic_string@DU?$char_traits@D@std@@V?$allocator@D@2@@std@@QEAAAEAV12@V?$_String_const_iterator@V?$_String_val@U?$_Simple_types@D@std@@@std@@@2@0V?$_String_iterator@V?$_String_val@U?$_Simple_types@D@std@@@std@@@2@1@Z DD imagerel $LN5
	DD	imagerel $LN5+273
	DD	imagerel $unwind$?replace@?$basic_string@DU?$char_traits@D@std@@V?$allocator@D@2@@std@@QEAAAEAV12@V?$_String_const_iterator@V?$_String_val@U?$_Simple_types@D@std@@@std@@@2@0V?$_String_iterator@V?$_String_val@U?$_Simple_types@D@std@@@std@@@2@1@Z
pdata	ENDS
;	COMDAT pdata
pdata	SEGMENT
$pdata$?begin@?$basic_string@DU?$char_traits@D@std@@V?$allocator@D@2@@std@@QEAA?AV?$_String_iterator@V?$_String_val@U?$_Simple_types@D@std@@@std@@@2@XZ DD imagerel $LN3
	DD	imagerel $LN3+112
	DD	imagerel $unwind$?begin@?$basic_string@DU?$char_traits@D@std@@V?$allocator@D@2@@std@@QEAA?AV?$_String_iterator@V?$_String_val@U?$_Simple_types@D@std@@@std@@@2@XZ
pdata	ENDS
;	COMDAT pdata
pdata	SEGMENT
$pdata$?end@?$basic_string@DU?$char_traits@D@std@@V?$allocator@D@2@@std@@QEAA?AV?$_String_iterator@V?$_String_val@U?$_Simple_types@D@std@@@std@@@2@XZ DD imagerel $LN3
	DD	imagerel $LN3+121
	DD	imagerel $unwind$?end@?$basic_string@DU?$char_traits@D@std@@V?$allocator@D@2@@std@@QEAA?AV?$_String_iterator@V?$_String_val@U?$_Simple_types@D@std@@@std@@@2@XZ
pdata	ENDS
;	COMDAT pdata
pdata	SEGMENT
$pdata$??A?$basic_string@DU?$char_traits@D@std@@V?$allocator@D@2@@std@@QEAAAEAD_K@Z DD imagerel $LN3
	DD	imagerel $LN3+34
	DD	imagerel $unwind$??A?$basic_string@DU?$char_traits@D@std@@V?$allocator@D@2@@std@@QEAAAEAD_K@Z
pdata	ENDS
;	COMDAT pdata
pdata	SEGMENT
$pdata$??A?$basic_string@DU?$char_traits@D@std@@V?$allocator@D@2@@std@@QEBAAEBD_K@Z DD imagerel $LN3
	DD	imagerel $LN3+34
	DD	imagerel $unwind$??A?$basic_string@DU?$char_traits@D@std@@V?$allocator@D@2@@std@@QEBAAEBD_K@Z
pdata	ENDS
;	COMDAT pdata
pdata	SEGMENT
$pdata$?c_str@?$basic_string@DU?$char_traits@D@std@@V?$allocator@D@2@@std@@QEBAPEBDXZ DD imagerel $LN3
	DD	imagerel $LN3+34
	DD	imagerel $unwind$?c_str@?$basic_string@DU?$char_traits@D@std@@V?$allocator@D@2@@std@@QEBAPEBDXZ
pdata	ENDS
;	COMDAT pdata
pdata	SEGMENT
$pdata$?size@?$basic_string@DU?$char_traits@D@std@@V?$allocator@D@2@@std@@QEBA_KXZ DD imagerel $LN3
	DD	imagerel $LN3+27
	DD	imagerel $unwind$?size@?$basic_string@DU?$char_traits@D@std@@V?$allocator@D@2@@std@@QEBA_KXZ
pdata	ENDS
;	COMDAT pdata
pdata	SEGMENT
$pdata$?max_size@?$basic_string@DU?$char_traits@D@std@@V?$allocator@D@2@@std@@QEBA_KXZ DD imagerel $LN5
	DD	imagerel $LN5+79
	DD	imagerel $unwind$?max_size@?$basic_string@DU?$char_traits@D@std@@V?$allocator@D@2@@std@@QEBA_KXZ
pdata	ENDS
;	COMDAT pdata
pdata	SEGMENT
$pdata$?resize@?$basic_string@DU?$char_traits@D@std@@V?$allocator@D@2@@std@@QEAAX_K@Z DD imagerel $LN3
	DD	imagerel $LN3+37
	DD	imagerel $unwind$?resize@?$basic_string@DU?$char_traits@D@std@@V?$allocator@D@2@@std@@QEAAX_K@Z
pdata	ENDS
;	COMDAT pdata
pdata	SEGMENT
$pdata$?resize@?$basic_string@DU?$char_traits@D@std@@V?$allocator@D@2@@std@@QEAAX_KD@Z DD imagerel $LN5
	DD	imagerel $LN5+104
	DD	imagerel $unwind$?resize@?$basic_string@DU?$char_traits@D@std@@V?$allocator@D@2@@std@@QEAAX_KD@Z
pdata	ENDS
;	COMDAT pdata
pdata	SEGMENT
$pdata$?empty@?$basic_string@DU?$char_traits@D@std@@V?$allocator@D@2@@std@@QEBA_NXZ DD imagerel $LN5
	DD	imagerel $LN5+53
	DD	imagerel $unwind$?empty@?$basic_string@DU?$char_traits@D@std@@V?$allocator@D@2@@std@@QEBA_NXZ
pdata	ENDS
;	COMDAT pdata
pdata	SEGMENT
$pdata$?_Traits_compare@?$basic_string@DU?$char_traits@D@std@@V?$allocator@D@2@@std@@SAHQEBD_K01@Z DD imagerel $LN8
	DD	imagerel $LN8+150
	DD	imagerel $unwind$?_Traits_compare@?$basic_string@DU?$char_traits@D@std@@V?$allocator@D@2@@std@@SAHQEBD_K01@Z
pdata	ENDS
;	COMDAT pdata
pdata	SEGMENT
$pdata$?_Clamp_suffix_size@?$basic_string@DU?$char_traits@D@std@@V?$allocator@D@2@@std@@QEBA_K_K0@Z DD imagerel $LN5
	DD	imagerel $LN5+76
	DD	imagerel $unwind$?_Clamp_suffix_size@?$basic_string@DU?$char_traits@D@std@@V?$allocator@D@2@@std@@QEBA_K_K0@Z
pdata	ENDS
;	COMDAT pdata
pdata	SEGMENT
$pdata$?compare@?$basic_string@DU?$char_traits@D@std@@V?$allocator@D@2@@std@@QEBAHAEBV12@@Z DD imagerel $LN3
	DD	imagerel $LN3+120
	DD	imagerel $unwind$?compare@?$basic_string@DU?$char_traits@D@std@@V?$allocator@D@2@@std@@QEBAHAEBV12@@Z
pdata	ENDS
;	COMDAT pdata
pdata	SEGMENT
$pdata$?get_allocator@?$basic_string@DU?$char_traits@D@std@@V?$allocator@D@2@@std@@QEBA?AV?$allocator@D@2@XZ DD imagerel $LN3
	DD	imagerel $LN3+62
	DD	imagerel $unwind$?get_allocator@?$basic_string@DU?$char_traits@D@std@@V?$allocator@D@2@@std@@QEBA?AV?$allocator@D@2@XZ
pdata	ENDS
;	COMDAT pdata
pdata	SEGMENT
$pdata$?_Chassign@?$basic_string@DU?$char_traits@D@std@@V?$allocator@D@2@@std@@QEAAX_K0D@Z DD imagerel $LN5
	DD	imagerel $LN5+101
	DD	imagerel $unwind$?_Chassign@?$basic_string@DU?$char_traits@D@std@@V?$allocator@D@2@@std@@QEAAX_K0D@Z
pdata	ENDS
;	COMDAT pdata
pdata	SEGMENT
$pdata$?_Copy@?$basic_string@DU?$char_traits@D@std@@V?$allocator@D@2@@std@@QEAAX_K0@Z DD imagerel $LN23
	DD	imagerel $LN23+560
	DD	imagerel $unwind$?_Copy@?$basic_string@DU?$char_traits@D@std@@V?$allocator@D@2@@std@@QEAAX_K0@Z
pdata	ENDS
;	COMDAT pdata
pdata	SEGMENT
$pdata$?catch$1@?0??_Copy@?$basic_string@DU?$char_traits@D@std@@V?$allocator@D@2@@std@@QEAAX_K0@Z@4HA DD imagerel ?catch$1@?0??_Copy@?$basic_string@DU?$char_traits@D@std@@V?$allocator@D@2@@std@@QEAAX_K0@Z@4HA
	DD	imagerel ?catch$1@?0??_Copy@?$basic_string@DU?$char_traits@D@std@@V?$allocator@D@2@@std@@QEAAX_K0@Z@4HA+90
	DD	imagerel $unwind$?catch$1@?0??_Copy@?$basic_string@DU?$char_traits@D@std@@V?$allocator@D@2@@std@@QEAAX_K0@Z@4HA
pdata	ENDS
;	COMDAT pdata
pdata	SEGMENT
$pdata$?catch$0@?0??_Copy@?$basic_string@DU?$char_traits@D@std@@V?$allocator@D@2@@std@@QEAAX_K0@Z@4HA DD imagerel ?catch$0@?0??_Copy@?$basic_string@DU?$char_traits@D@std@@V?$allocator@D@2@@std@@QEAAX_K0@Z@4HA
	DD	imagerel ?catch$0@?0??_Copy@?$basic_string@DU?$char_traits@D@std@@V?$allocator@D@2@@std@@QEAAX_K0@Z@4HA+54
	DD	imagerel $unwind$?catch$0@?0??_Copy@?$basic_string@DU?$char_traits@D@std@@V?$allocator@D@2@@std@@QEAAX_K0@Z@4HA
pdata	ENDS
;	COMDAT pdata
pdata	SEGMENT
$pdata$?_Eos@?$basic_string@DU?$char_traits@D@std@@V?$allocator@D@2@@std@@QEAAX_K@Z DD imagerel $LN3
	DD	imagerel $LN3+81
	DD	imagerel $unwind$?_Eos@?$basic_string@DU?$char_traits@D@std@@V?$allocator@D@2@@std@@QEAAX_K@Z
pdata	ENDS
;	COMDAT pdata
pdata	SEGMENT
$pdata$?_Grow@?$basic_string@DU?$char_traits@D@std@@V?$allocator@D@2@@std@@QEAA_N_K_N@Z DD imagerel $LN13
	DD	imagerel $LN13+238
	DD	imagerel $unwind$?_Grow@?$basic_string@DU?$char_traits@D@std@@V?$allocator@D@2@@std@@QEAA_N_K_N@Z
pdata	ENDS
;	COMDAT pdata
pdata	SEGMENT
$pdata$?_Inside@?$basic_string@DU?$char_traits@D@std@@V?$allocator@D@2@@std@@QEAA_NPEBD@Z DD imagerel $LN6
	DD	imagerel $LN6+95
	DD	imagerel $unwind$?_Inside@?$basic_string@DU?$char_traits@D@std@@V?$allocator@D@2@@std@@QEAA_NPEBD@Z
pdata	ENDS
;	COMDAT pdata
pdata	SEGMENT
$pdata$?_Tidy@?$basic_string@DU?$char_traits@D@std@@V?$allocator@D@2@@std@@QEAAX_N_K@Z DD imagerel $LN7
	DD	imagerel $LN7+262
	DD	imagerel $unwind$?_Tidy@?$basic_string@DU?$char_traits@D@std@@V?$allocator@D@2@@std@@QEAAX_N_K@Z
pdata	ENDS
;	COMDAT pdata
pdata	SEGMENT
$pdata$?_Xlen@?$basic_string@DU?$char_traits@D@std@@V?$allocator@D@2@@std@@QEBAXXZ DD imagerel $LN3
	DD	imagerel $LN3+26
	DD	imagerel $unwind$?_Xlen@?$basic_string@DU?$char_traits@D@std@@V?$allocator@D@2@@std@@QEBAXXZ
pdata	ENDS
;	COMDAT pdata
pdata	SEGMENT
$pdata$?_Check_offset@?$basic_string@DU?$char_traits@D@std@@V?$allocator@D@2@@std@@QEBAX_K@Z DD imagerel $LN4
	DD	imagerel $LN4+49
	DD	imagerel $unwind$?_Check_offset@?$basic_string@DU?$char_traits@D@std@@V?$allocator@D@2@@std@@QEBAX_K@Z
pdata	ENDS
;	COMDAT pdata
pdata	SEGMENT
$pdata$?_Xran@?$basic_string@DU?$char_traits@D@std@@V?$allocator@D@2@@std@@QEBAXXZ DD imagerel $LN3
	DD	imagerel $LN3+26
	DD	imagerel $unwind$?_Xran@?$basic_string@DU?$char_traits@D@std@@V?$allocator@D@2@@std@@QEBAXXZ
pdata	ENDS
;	COMDAT pdata
pdata	SEGMENT
$pdata$??0runtime_error@std@@QEAA@AEBV?$basic_string@DU?$char_traits@D@std@@V?$allocator@D@2@@1@@Z DD imagerel $LN4
	DD	imagerel $LN4+62
	DD	imagerel $unwind$??0runtime_error@std@@QEAA@AEBV?$basic_string@DU?$char_traits@D@std@@V?$allocator@D@2@@1@@Z
pdata	ENDS
;	COMDAT pdata
pdata	SEGMENT
$pdata$??0runtime_error@std@@QEAA@PEBD@Z DD imagerel $LN4
	DD	imagerel $LN4+54
	DD	imagerel $unwind$??0runtime_error@std@@QEAA@PEBD@Z
pdata	ENDS
;	COMDAT pdata
pdata	SEGMENT
$pdata$??1runtime_error@std@@UEAA@XZ DD imagerel $LN3
	DD	imagerel $LN3+24
	DD	imagerel $unwind$??1runtime_error@std@@UEAA@XZ
pdata	ENDS
;	COMDAT pdata
pdata	SEGMENT
$pdata$??0runtime_error@std@@QEAA@AEBV01@@Z DD imagerel $LN3
	DD	imagerel $LN3+54
	DD	imagerel $unwind$??0runtime_error@std@@QEAA@AEBV01@@Z
pdata	ENDS
;	COMDAT pdata
pdata	SEGMENT
$pdata$??_Gruntime_error@std@@UEAAPEAXI@Z DD imagerel $LN4
	DD	imagerel $LN4+59
	DD	imagerel $unwind$??_Gruntime_error@std@@UEAAPEAXI@Z
pdata	ENDS
;	COMDAT pdata
pdata	SEGMENT
$pdata$??0bad_cast@std@@QEAA@XZ DD imagerel $LN3
	DD	imagerel $LN3+57
	DD	imagerel $unwind$??0bad_cast@std@@QEAA@XZ
pdata	ENDS
;	COMDAT pdata
pdata	SEGMENT
$pdata$??1bad_cast@std@@UEAA@XZ DD imagerel $LN3
	DD	imagerel $LN3+24
	DD	imagerel $unwind$??1bad_cast@std@@UEAA@XZ
pdata	ENDS
;	COMDAT pdata
pdata	SEGMENT
$pdata$??0bad_cast@std@@QEAA@AEBV01@@Z DD imagerel $LN3
	DD	imagerel $LN3+54
	DD	imagerel $unwind$??0bad_cast@std@@QEAA@AEBV01@@Z
pdata	ENDS
;	COMDAT pdata
pdata	SEGMENT
$pdata$??_Gbad_cast@std@@UEAAPEAXI@Z DD imagerel $LN4
	DD	imagerel $LN4+59
	DD	imagerel $unwind$??_Gbad_cast@std@@UEAAPEAXI@Z
pdata	ENDS
;	COMDAT pdata
pdata	SEGMENT
$pdata$??0_Locinfo@std@@QEAA@PEBD@Z DD imagerel $LN12
	DD	imagerel $LN12+215
	DD	imagerel $unwind$??0_Locinfo@std@@QEAA@PEBD@Z
pdata	ENDS
;	COMDAT pdata
pdata	SEGMENT
$pdata$?dtor$0@?0???0_Locinfo@std@@QEAA@PEBD@Z@4HA DD imagerel ?dtor$0@?0???0_Locinfo@std@@QEAA@PEBD@Z@4HA
	DD	imagerel ?dtor$0@?0???0_Locinfo@std@@QEAA@PEBD@Z@4HA+24
	DD	imagerel $unwind$?dtor$0@?0???0_Locinfo@std@@QEAA@PEBD@Z@4HA
pdata	ENDS
;	COMDAT pdata
pdata	SEGMENT
$pdata$?dtor$1@?0???0_Locinfo@std@@QEAA@PEBD@Z@4HA DD imagerel ?dtor$1@?0???0_Locinfo@std@@QEAA@PEBD@Z@4HA
	DD	imagerel ?dtor$1@?0???0_Locinfo@std@@QEAA@PEBD@Z@4HA+28
	DD	imagerel $unwind$?dtor$1@?0???0_Locinfo@std@@QEAA@PEBD@Z@4HA
pdata	ENDS
;	COMDAT pdata
pdata	SEGMENT
$pdata$?dtor$2@?0???0_Locinfo@std@@QEAA@PEBD@Z@4HA DD imagerel ?dtor$2@?0???0_Locinfo@std@@QEAA@PEBD@Z@4HA
	DD	imagerel ?dtor$2@?0???0_Locinfo@std@@QEAA@PEBD@Z@4HA+28
	DD	imagerel $unwind$?dtor$2@?0???0_Locinfo@std@@QEAA@PEBD@Z@4HA
pdata	ENDS
;	COMDAT pdata
pdata	SEGMENT
$pdata$?dtor$3@?0???0_Locinfo@std@@QEAA@PEBD@Z@4HA DD imagerel ?dtor$3@?0???0_Locinfo@std@@QEAA@PEBD@Z@4HA
	DD	imagerel ?dtor$3@?0???0_Locinfo@std@@QEAA@PEBD@Z@4HA+28
	DD	imagerel $unwind$?dtor$3@?0???0_Locinfo@std@@QEAA@PEBD@Z@4HA
pdata	ENDS
;	COMDAT pdata
pdata	SEGMENT
$pdata$?dtor$4@?0???0_Locinfo@std@@QEAA@PEBD@Z@4HA DD imagerel ?dtor$4@?0???0_Locinfo@std@@QEAA@PEBD@Z@4HA
	DD	imagerel ?dtor$4@?0???0_Locinfo@std@@QEAA@PEBD@Z@4HA+28
	DD	imagerel $unwind$?dtor$4@?0???0_Locinfo@std@@QEAA@PEBD@Z@4HA
pdata	ENDS
;	COMDAT pdata
pdata	SEGMENT
$pdata$?dtor$5@?0???0_Locinfo@std@@QEAA@PEBD@Z@4HA DD imagerel ?dtor$5@?0???0_Locinfo@std@@QEAA@PEBD@Z@4HA
	DD	imagerel ?dtor$5@?0???0_Locinfo@std@@QEAA@PEBD@Z@4HA+28
	DD	imagerel $unwind$?dtor$5@?0???0_Locinfo@std@@QEAA@PEBD@Z@4HA
pdata	ENDS
;	COMDAT pdata
pdata	SEGMENT
$pdata$?dtor$6@?0???0_Locinfo@std@@QEAA@PEBD@Z@4HA DD imagerel ?dtor$6@?0???0_Locinfo@std@@QEAA@PEBD@Z@4HA
	DD	imagerel ?dtor$6@?0???0_Locinfo@std@@QEAA@PEBD@Z@4HA+28
	DD	imagerel $unwind$?dtor$6@?0???0_Locinfo@std@@QEAA@PEBD@Z@4HA
pdata	ENDS
;	COMDAT pdata
pdata	SEGMENT
$pdata$??1_Locinfo@std@@QEAA@XZ DD imagerel $LN3
	DD	imagerel $LN3+156
	DD	imagerel $unwind$??1_Locinfo@std@@QEAA@XZ
pdata	ENDS
;	COMDAT pdata
pdata	SEGMENT
$pdata$?_Getctype@_Locinfo@std@@QEBA?AU_Ctypevec@@XZ DD imagerel $LN3
	DD	imagerel $LN3+82
	DD	imagerel $unwind$?_Getctype@_Locinfo@std@@QEBA?AU_Ctypevec@@XZ
pdata	ENDS
;	COMDAT pdata
pdata	SEGMENT
$pdata$?_Getcvt@_Locinfo@std@@QEBA?AU_Cvtvec@@XZ DD imagerel $LN3
	DD	imagerel $LN3+122
	DD	imagerel $unwind$?_Getcvt@_Locinfo@std@@QEBA?AU_Cvtvec@@XZ
pdata	ENDS
;	COMDAT pdata
pdata	SEGMENT
$pdata$?_Getlconv@_Locinfo@std@@QEBAPEBUlconv@@XZ DD imagerel $LN3
	DD	imagerel $LN3+19
	DD	imagerel $unwind$?_Getlconv@_Locinfo@std@@QEBAPEBUlconv@@XZ
pdata	ENDS
;	COMDAT pdata
pdata	SEGMENT
$pdata$??1?$_Yarn@D@std@@QEAA@XZ DD imagerel $LN3
	DD	imagerel $LN3+34
	DD	imagerel $unwind$??1?$_Yarn@D@std@@QEAA@XZ
pdata	ENDS
;	COMDAT pdata
pdata	SEGMENT
$pdata$?c_str@?$_Yarn@D@std@@QEBAPEBDXZ DD imagerel $LN5
	DD	imagerel $LN5+56
	DD	imagerel $unwind$?c_str@?$_Yarn@D@std@@QEBAPEBDXZ
pdata	ENDS
;	COMDAT pdata
pdata	SEGMENT
$pdata$?_Tidy@?$_Yarn@D@std@@AEAAXXZ DD imagerel $LN4
	DD	imagerel $LN4+50
	DD	imagerel $unwind$?_Tidy@?$_Yarn@D@std@@AEAAXXZ
pdata	ENDS
;	COMDAT pdata
pdata	SEGMENT
$pdata$??1?$_Yarn@_W@std@@QEAA@XZ DD imagerel $LN3
	DD	imagerel $LN3+34
	DD	imagerel $unwind$??1?$_Yarn@_W@std@@QEAA@XZ
pdata	ENDS
;	COMDAT pdata
pdata	SEGMENT
$pdata$?_Tidy@?$_Yarn@_W@std@@AEAAXXZ DD imagerel $LN4
	DD	imagerel $LN4+50
	DD	imagerel $unwind$?_Tidy@?$_Yarn@_W@std@@AEAAXXZ
pdata	ENDS
;	COMDAT pdata
pdata	SEGMENT
$pdata$??_G_Facet_base@std@@UEAAPEAXI@Z DD imagerel $LN4
	DD	imagerel $LN4+59
	DD	imagerel $unwind$??_G_Facet_base@std@@UEAAPEAXI@Z
pdata	ENDS
;	COMDAT pdata
pdata	SEGMENT
$pdata$??Bid@locale@std@@QEAA_KXZ DD imagerel $LN6
	DD	imagerel $LN6+95
	DD	imagerel $unwind$??Bid@locale@std@@QEAA_KXZ
pdata	ENDS
;	COMDAT pdata
pdata	SEGMENT
$pdata$??0facet@locale@std@@IEAA@_K@Z DD imagerel $LN4
	DD	imagerel $LN4+81
	DD	imagerel $unwind$??0facet@locale@std@@IEAA@_K@Z
pdata	ENDS
;	COMDAT pdata
pdata	SEGMENT
$pdata$?dtor$0@?0???0facet@locale@std@@IEAA@_K@Z@4HA DD imagerel ?dtor$0@?0???0facet@locale@std@@IEAA@_K@Z@4HA
	DD	imagerel ?dtor$0@?0???0facet@locale@std@@IEAA@_K@Z@4HA+24
	DD	imagerel $unwind$?dtor$0@?0???0facet@locale@std@@IEAA@_K@Z@4HA
pdata	ENDS
;	COMDAT pdata
pdata	SEGMENT
$pdata$??1facet@locale@std@@MEAA@XZ DD imagerel $LN3
	DD	imagerel $LN3+39
	DD	imagerel $unwind$??1facet@locale@std@@MEAA@XZ
pdata	ENDS
;	COMDAT pdata
pdata	SEGMENT
$pdata$??_Gfacet@locale@std@@MEAAPEAXI@Z DD imagerel $LN4
	DD	imagerel $LN4+59
	DD	imagerel $unwind$??_Gfacet@locale@std@@MEAAPEAXI@Z
pdata	ENDS
;	COMDAT pdata
pdata	SEGMENT
$pdata$??0locale@std@@QEAA@AEBV01@@Z DD imagerel $LN3
	DD	imagerel $LN3+76
	DD	imagerel $unwind$??0locale@std@@QEAA@AEBV01@@Z
pdata	ENDS
;	COMDAT pdata
pdata	SEGMENT
$pdata$??0locale@std@@QEAA@XZ DD imagerel $LN3
	DD	imagerel $LN3+45
	DD	imagerel $unwind$??0locale@std@@QEAA@XZ
pdata	ENDS
;	COMDAT pdata
pdata	SEGMENT
$pdata$??1locale@std@@QEAA@XZ DD imagerel $LN6
	DD	imagerel $LN6+120
	DD	imagerel $unwind$??1locale@std@@QEAA@XZ
pdata	ENDS
;	COMDAT pdata
pdata	SEGMENT
$pdata$?c_str@locale@std@@QEBAPEBDXZ DD imagerel $LN5
	DD	imagerel $LN5+71
	DD	imagerel $unwind$?c_str@locale@std@@QEBAPEBDXZ
pdata	ENDS
;	COMDAT pdata
pdata	SEGMENT
$pdata$?_Getfacet@locale@std@@QEBAPEBVfacet@12@_K@Z DD imagerel $LN10
	DD	imagerel $LN10+186
	DD	imagerel $unwind$?_Getfacet@locale@std@@QEBAPEBVfacet@12@_K@Z
pdata	ENDS
;	COMDAT pdata
pdata	SEGMENT
$pdata$??_Glocale@std@@QEAAPEAXI@Z DD imagerel $LN4
	DD	imagerel $LN4+59
	DD	imagerel $unwind$??_Glocale@std@@QEAAPEAXI@Z
pdata	ENDS
;	COMDAT pdata
pdata	SEGMENT
$pdata$??0ctype_base@std@@QEAA@_K@Z DD imagerel $LN4
	DD	imagerel $LN4+54
	DD	imagerel $unwind$??0ctype_base@std@@QEAA@_K@Z
pdata	ENDS
;	COMDAT pdata
pdata	SEGMENT
$pdata$??1ctype_base@std@@UEAA@XZ DD imagerel $LN3
	DD	imagerel $LN3+39
	DD	imagerel $unwind$??1ctype_base@std@@UEAA@XZ
pdata	ENDS
;	COMDAT pdata
pdata	SEGMENT
$pdata$??_Gctype_base@std@@UEAAPEAXI@Z DD imagerel $LN4
	DD	imagerel $LN4+59
	DD	imagerel $unwind$??_Gctype_base@std@@UEAAPEAXI@Z
pdata	ENDS
;	COMDAT pdata
pdata	SEGMENT
$pdata$?widen@?$ctype@D@std@@QEBADD@Z DD imagerel $LN3
	DD	imagerel $LN3+39
	DD	imagerel $unwind$?widen@?$ctype@D@std@@QEBADD@Z
pdata	ENDS
;	COMDAT pdata
pdata	SEGMENT
$pdata$?widen@?$ctype@D@std@@QEBAPEBDPEBD0PEAD@Z DD imagerel $LN3
	DD	imagerel $LN3+60
	DD	imagerel $unwind$?widen@?$ctype@D@std@@QEBAPEBDPEBD0PEAD@Z
pdata	ENDS
;	COMDAT pdata
pdata	SEGMENT
$pdata$??0?$ctype@D@std@@QEAA@AEBV_Locinfo@1@_K@Z DD imagerel $LN4
	DD	imagerel $LN4+85
	DD	imagerel $unwind$??0?$ctype@D@std@@QEAA@AEBV_Locinfo@1@_K@Z
pdata	ENDS
;	COMDAT pdata
pdata	SEGMENT
$pdata$?dtor$0@?0???0?$ctype@D@std@@QEAA@AEBV_Locinfo@1@_K@Z@4HA DD imagerel ?dtor$0@?0???0?$ctype@D@std@@QEAA@AEBV_Locinfo@1@_K@Z@4HA
	DD	imagerel ?dtor$0@?0???0?$ctype@D@std@@QEAA@AEBV_Locinfo@1@_K@Z@4HA+24
	DD	imagerel $unwind$?dtor$0@?0???0?$ctype@D@std@@QEAA@AEBV_Locinfo@1@_K@Z@4HA
pdata	ENDS
;	COMDAT pdata
pdata	SEGMENT
$pdata$?_Getcat@?$ctype@D@std@@SA_KPEAPEBVfacet@locale@2@PEBV42@@Z DD imagerel $LN10
	DD	imagerel $LN10+241
	DD	imagerel $unwind$?_Getcat@?$ctype@D@std@@SA_KPEAPEBVfacet@locale@2@PEBV42@@Z
pdata	ENDS
;	COMDAT pdata
pdata	SEGMENT
$pdata$?dtor$0@?0??_Getcat@?$ctype@D@std@@SA_KPEAPEBVfacet@locale@2@PEBV42@@Z@4HA DD imagerel ?dtor$0@?0??_Getcat@?$ctype@D@std@@SA_KPEAPEBVfacet@locale@2@PEBV42@@Z@4HA
	DD	imagerel ?dtor$0@?0??_Getcat@?$ctype@D@std@@SA_KPEAPEBVfacet@locale@2@PEBV42@@Z@4HA+29
	DD	imagerel $unwind$?dtor$0@?0??_Getcat@?$ctype@D@std@@SA_KPEAPEBVfacet@locale@2@PEBV42@@Z@4HA
pdata	ENDS
;	COMDAT pdata
pdata	SEGMENT
$pdata$?dtor$1@?0??_Getcat@?$ctype@D@std@@SA_KPEAPEBVfacet@locale@2@PEBV42@@Z@4HA DD imagerel ?dtor$1@?0??_Getcat@?$ctype@D@std@@SA_KPEAPEBVfacet@locale@2@PEBV42@@Z@4HA
	DD	imagerel ?dtor$1@?0??_Getcat@?$ctype@D@std@@SA_KPEAPEBVfacet@locale@2@PEBV42@@Z@4HA+38
	DD	imagerel $unwind$?dtor$1@?0??_Getcat@?$ctype@D@std@@SA_KPEAPEBVfacet@locale@2@PEBV42@@Z@4HA
pdata	ENDS
;	COMDAT pdata
pdata	SEGMENT
$pdata$??1?$ctype@D@std@@MEAA@XZ DD imagerel $LN3
	DD	imagerel $LN3+60
	DD	imagerel $unwind$??1?$ctype@D@std@@MEAA@XZ
pdata	ENDS
;	COMDAT pdata
pdata	SEGMENT
$pdata$?_Init@?$ctype@D@std@@IEAAXAEBV_Locinfo@2@@Z DD imagerel $LN3
	DD	imagerel $LN3+57
	DD	imagerel $unwind$?_Init@?$ctype@D@std@@IEAAXAEBV_Locinfo@2@@Z
pdata	ENDS
;	COMDAT pdata
pdata	SEGMENT
$pdata$?_Tidy@?$ctype@D@std@@IEAAXXZ DD imagerel $LN6
	DD	imagerel $LN6+90
	DD	imagerel $unwind$?_Tidy@?$ctype@D@std@@IEAAXXZ
pdata	ENDS
;	COMDAT pdata
pdata	SEGMENT
$pdata$?do_tolower@?$ctype@D@std@@MEBADD@Z DD imagerel $LN3
	DD	imagerel $LN3+40
	DD	imagerel $unwind$?do_tolower@?$ctype@D@std@@MEBADD@Z
pdata	ENDS
;	COMDAT pdata
pdata	SEGMENT
$pdata$?do_tolower@?$ctype@D@std@@MEBAPEBDPEADPEBD@Z DD imagerel $LN6
	DD	imagerel $LN6+90
	DD	imagerel $unwind$?do_tolower@?$ctype@D@std@@MEBAPEBDPEADPEBD@Z
pdata	ENDS
;	COMDAT pdata
pdata	SEGMENT
$pdata$?do_toupper@?$ctype@D@std@@MEBADD@Z DD imagerel $LN3
	DD	imagerel $LN3+40
	DD	imagerel $unwind$?do_toupper@?$ctype@D@std@@MEBADD@Z
pdata	ENDS
;	COMDAT pdata
pdata	SEGMENT
$pdata$?do_toupper@?$ctype@D@std@@MEBAPEBDPEADPEBD@Z DD imagerel $LN6
	DD	imagerel $LN6+90
	DD	imagerel $unwind$?do_toupper@?$ctype@D@std@@MEBAPEBDPEADPEBD@Z
pdata	ENDS
;	COMDAT pdata
pdata	SEGMENT
$pdata$?do_widen@?$ctype@D@std@@MEBAPEBDPEBD0PEAD@Z DD imagerel $LN3
	DD	imagerel $LN3+68
	DD	imagerel $unwind$?do_widen@?$ctype@D@std@@MEBAPEBDPEBD0PEAD@Z
pdata	ENDS
;	COMDAT pdata
pdata	SEGMENT
$pdata$?do_narrow@?$ctype@D@std@@MEBAPEBDPEBD0DPEAD@Z DD imagerel $LN3
	DD	imagerel $LN3+68
	DD	imagerel $unwind$?do_narrow@?$ctype@D@std@@MEBAPEBDPEBD0DPEAD@Z
pdata	ENDS
;	COMDAT pdata
pdata	SEGMENT
$pdata$??_G?$ctype@D@std@@MEAAPEAXI@Z DD imagerel $LN4
	DD	imagerel $LN4+59
	DD	imagerel $unwind$??_G?$ctype@D@std@@MEAAPEAXI@Z
pdata	ENDS
;	COMDAT pdata
pdata	SEGMENT
$pdata$??$use_facet@V?$ctype@D@std@@@std@@YAAEBV?$ctype@D@0@AEBVlocale@0@@Z DD imagerel $LN11
	DD	imagerel $LN11+258
	DD	imagerel $unwind$??$use_facet@V?$ctype@D@std@@@std@@YAAEBV?$ctype@D@0@AEBVlocale@0@@Z
pdata	ENDS
;	COMDAT pdata
pdata	SEGMENT
$pdata$?dtor$0@?0???$use_facet@V?$ctype@D@std@@@std@@YAAEBV?$ctype@D@0@AEBVlocale@0@@Z@4HA DD imagerel ?dtor$0@?0???$use_facet@V?$ctype@D@std@@@std@@YAAEBV?$ctype@D@0@AEBVlocale@0@@Z@4HA
	DD	imagerel ?dtor$0@?0???$use_facet@V?$ctype@D@std@@@std@@YAAEBV?$ctype@D@0@AEBVlocale@0@@Z@4HA+24
	DD	imagerel $unwind$?dtor$0@?0???$use_facet@V?$ctype@D@std@@@std@@YAAEBV?$ctype@D@0@AEBVlocale@0@@Z@4HA
pdata	ENDS
;	COMDAT pdata
pdata	SEGMENT
$pdata$?make_error_code@std@@YA?AVerror_code@1@W4io_errc@1@@Z DD imagerel $LN3
	DD	imagerel $LN3+45
	DD	imagerel $unwind$?make_error_code@std@@YA?AVerror_code@1@W4io_errc@1@@Z
pdata	ENDS
;	COMDAT pdata
pdata	SEGMENT
$pdata$?iostream_category@std@@YAAEBVerror_category@1@XZ DD imagerel $LN3
	DD	imagerel $LN3+24
	DD	imagerel $unwind$?iostream_category@std@@YAAEBVerror_category@1@XZ
pdata	ENDS
;	COMDAT pdata
pdata	SEGMENT
$pdata$?default_error_condition@error_category@std@@UEBA?AVerror_condition@2@H@Z DD imagerel $LN3
	DD	imagerel $LN3+48
	DD	imagerel $unwind$?default_error_condition@error_category@std@@UEBA?AVerror_condition@2@H@Z
pdata	ENDS
;	COMDAT pdata
pdata	SEGMENT
$pdata$?equivalent@error_category@std@@UEBA_NHAEBVerror_condition@2@@Z DD imagerel $LN3
	DD	imagerel $LN3+62
	DD	imagerel $unwind$?equivalent@error_category@std@@UEBA_NHAEBVerror_condition@2@@Z
pdata	ENDS
;	COMDAT pdata
pdata	SEGMENT
$pdata$?equivalent@error_category@std@@UEBA_NAEBVerror_code@2@H@Z DD imagerel $LN5
	DD	imagerel $LN5+93
	DD	imagerel $unwind$?equivalent@error_category@std@@UEBA_NAEBVerror_code@2@H@Z
pdata	ENDS
;	COMDAT pdata
pdata	SEGMENT
$pdata$??8error_category@std@@QEBA_NAEBV01@@Z DD imagerel $LN5
	DD	imagerel $LN5+59
	DD	imagerel $unwind$??8error_category@std@@QEBA_NAEBV01@@Z
pdata	ENDS
;	COMDAT pdata
pdata	SEGMENT
$pdata$??_Gerror_category@std@@UEAAPEAXI@Z DD imagerel $LN4
	DD	imagerel $LN4+59
	DD	imagerel $unwind$??_Gerror_category@std@@UEAAPEAXI@Z
pdata	ENDS
;	COMDAT pdata
pdata	SEGMENT
$pdata$?message@error_code@std@@QEBA?AV?$basic_string@DU?$char_traits@D@std@@V?$allocator@D@2@@2@XZ DD imagerel $LN5
	DD	imagerel $LN5+102
	DD	imagerel $unwind$?message@error_code@std@@QEBA?AV?$basic_string@DU?$char_traits@D@std@@V?$allocator@D@2@@2@XZ
pdata	ENDS
;	COMDAT pdata
pdata	SEGMENT
$pdata$??8std@@YA_NAEBVerror_condition@0@0@Z DD imagerel $LN5
	DD	imagerel $LN5+122
	DD	imagerel $unwind$??8std@@YA_NAEBVerror_condition@0@0@Z
pdata	ENDS
;	COMDAT pdata
pdata	SEGMENT
$pdata$?_Makestr@_System_error@std@@CA?AV?$basic_string@DU?$char_traits@D@std@@V?$allocator@D@2@@2@Verror_code@2@V32@@Z DD imagerel $LN8
	DD	imagerel $LN8+224
	DD	imagerel $unwind$?_Makestr@_System_error@std@@CA?AV?$basic_string@DU?$char_traits@D@std@@V?$allocator@D@2@@2@Verror_code@2@V32@@Z
pdata	ENDS
;	COMDAT pdata
pdata	SEGMENT
$pdata$?dtor$0@?0??_Makestr@_System_error@std@@CA?AV?$basic_string@DU?$char_traits@D@std@@V?$allocator@D@2@@2@Verror_code@2@V32@@Z@4HA DD imagerel ?dtor$0@?0??_Makestr@_System_error@std@@CA?AV?$basic_string@DU?$char_traits@D@std@@V?$allocator@D@2@@2@Verror_code@2@V32@@Z@4HA
	DD	imagerel ?dtor$0@?0??_Makestr@_System_error@std@@CA?AV?$basic_string@DU?$char_traits@D@std@@V?$allocator@D@2@@2@Verror_code@2@V32@@Z@4HA+27
	DD	imagerel $unwind$?dtor$0@?0??_Makestr@_System_error@std@@CA?AV?$basic_string@DU?$char_traits@D@std@@V?$allocator@D@2@@2@Verror_code@2@V32@@Z@4HA
pdata	ENDS
;	COMDAT pdata
pdata	SEGMENT
$pdata$?dtor$1@?0??_Makestr@_System_error@std@@CA?AV?$basic_string@DU?$char_traits@D@std@@V?$allocator@D@2@@2@Verror_code@2@V32@@Z@4HA DD imagerel ?dtor$1@?0??_Makestr@_System_error@std@@CA?AV?$basic_string@DU?$char_traits@D@std@@V?$allocator@D@2@@2@Verror_code@2@V32@@Z@4HA
	DD	imagerel ?dtor$1@?0??_Makestr@_System_error@std@@CA?AV?$basic_string@DU?$char_traits@D@std@@V?$allocator@D@2@@2@Verror_code@2@V32@@Z@4HA+24
	DD	imagerel $unwind$?dtor$1@?0??_Makestr@_System_error@std@@CA?AV?$basic_string@DU?$char_traits@D@std@@V?$allocator@D@2@@2@Verror_code@2@V32@@Z@4HA
pdata	ENDS
;	COMDAT pdata
pdata	SEGMENT
$pdata$??0_System_error@std@@IEAA@Verror_code@1@AEBV?$basic_string@DU?$char_traits@D@std@@V?$allocator@D@2@@1@@Z DD imagerel $LN6
	DD	imagerel $LN6+256
	DD	imagerel $unwind$??0_System_error@std@@IEAA@Verror_code@1@AEBV?$basic_string@DU?$char_traits@D@std@@V?$allocator@D@2@@1@@Z
pdata	ENDS
;	COMDAT pdata
pdata	SEGMENT
$pdata$?dtor$1@?0???0_System_error@std@@IEAA@Verror_code@1@AEBV?$basic_string@DU?$char_traits@D@std@@V?$allocator@D@2@@1@@Z@4HA DD imagerel ?dtor$1@?0???0_System_error@std@@IEAA@Verror_code@1@AEBV?$basic_string@DU?$char_traits@D@std@@V?$allocator@D@2@@1@@Z@4HA
	DD	imagerel ?dtor$1@?0???0_System_error@std@@IEAA@Verror_code@1@AEBV?$basic_string@DU?$char_traits@D@std@@V?$allocator@D@2@@1@@Z@4HA+27
	DD	imagerel $unwind$?dtor$1@?0???0_System_error@std@@IEAA@Verror_code@1@AEBV?$basic_string@DU?$char_traits@D@std@@V?$allocator@D@2@@1@@Z@4HA
pdata	ENDS
;	COMDAT pdata
pdata	SEGMENT
$pdata$??1_System_error@std@@UEAA@XZ DD imagerel $LN3
	DD	imagerel $LN3+24
	DD	imagerel $unwind$??1_System_error@std@@UEAA@XZ
pdata	ENDS
;	COMDAT pdata
pdata	SEGMENT
$pdata$??0_System_error@std@@QEAA@AEBV01@@Z DD imagerel $LN3
	DD	imagerel $LN3+83
	DD	imagerel $unwind$??0_System_error@std@@QEAA@AEBV01@@Z
pdata	ENDS
;	COMDAT pdata
pdata	SEGMENT
$pdata$??_G_System_error@std@@UEAAPEAXI@Z DD imagerel $LN4
	DD	imagerel $LN4+59
	DD	imagerel $unwind$??_G_System_error@std@@UEAAPEAXI@Z
pdata	ENDS
;	COMDAT pdata
pdata	SEGMENT
$pdata$??0system_error@std@@QEAA@Verror_code@1@PEBD@Z DD imagerel $LN5
	DD	imagerel $LN5+167
	DD	imagerel $unwind$??0system_error@std@@QEAA@Verror_code@1@PEBD@Z
pdata	ENDS
;	COMDAT pdata
pdata	SEGMENT
$pdata$?dtor$0@?0???0system_error@std@@QEAA@Verror_code@1@PEBD@Z@4HA DD imagerel ?dtor$0@?0???0system_error@std@@QEAA@Verror_code@1@PEBD@Z@4HA
	DD	imagerel ?dtor$0@?0???0system_error@std@@QEAA@Verror_code@1@PEBD@Z@4HA+24
	DD	imagerel $unwind$?dtor$0@?0???0system_error@std@@QEAA@Verror_code@1@PEBD@Z@4HA
pdata	ENDS
;	COMDAT pdata
pdata	SEGMENT
$pdata$??1system_error@std@@UEAA@XZ DD imagerel $LN3
	DD	imagerel $LN3+24
	DD	imagerel $unwind$??1system_error@std@@UEAA@XZ
pdata	ENDS
;	COMDAT pdata
pdata	SEGMENT
$pdata$??0system_error@std@@QEAA@AEBV01@@Z DD imagerel $LN3
	DD	imagerel $LN3+54
	DD	imagerel $unwind$??0system_error@std@@QEAA@AEBV01@@Z
pdata	ENDS
;	COMDAT pdata
pdata	SEGMENT
$pdata$??_Gsystem_error@std@@UEAAPEAXI@Z DD imagerel $LN4
	DD	imagerel $LN4+59
	DD	imagerel $unwind$??_Gsystem_error@std@@UEAAPEAXI@Z
pdata	ENDS
;	COMDAT pdata
pdata	SEGMENT
$pdata$??0_Generic_error_category@std@@QEAA@XZ DD imagerel $LN3
	DD	imagerel $LN3+57
	DD	imagerel $unwind$??0_Generic_error_category@std@@QEAA@XZ
pdata	ENDS
;	COMDAT pdata
pdata	SEGMENT
$pdata$?message@_Generic_error_category@std@@UEBA?AV?$basic_string@DU?$char_traits@D@std@@V?$allocator@D@2@@2@H@Z DD imagerel $LN5
	DD	imagerel $LN5+70
	DD	imagerel $unwind$?message@_Generic_error_category@std@@UEBA?AV?$basic_string@DU?$char_traits@D@std@@V?$allocator@D@2@@2@H@Z
pdata	ENDS
;	COMDAT pdata
pdata	SEGMENT
$pdata$??1_Generic_error_category@std@@UEAA@XZ DD imagerel $LN3
	DD	imagerel $LN3+24
	DD	imagerel $unwind$??1_Generic_error_category@std@@UEAA@XZ
pdata	ENDS
;	COMDAT pdata
pdata	SEGMENT
$pdata$??_G_Generic_error_category@std@@UEAAPEAXI@Z DD imagerel $LN4
	DD	imagerel $LN4+59
	DD	imagerel $unwind$??_G_Generic_error_category@std@@UEAAPEAXI@Z
pdata	ENDS
;	COMDAT pdata
pdata	SEGMENT
$pdata$??0_Iostream_error_category@std@@QEAA@XZ DD imagerel $LN3
	DD	imagerel $LN3+57
	DD	imagerel $unwind$??0_Iostream_error_category@std@@QEAA@XZ
pdata	ENDS
;	COMDAT pdata
pdata	SEGMENT
$pdata$?message@_Iostream_error_category@std@@UEBA?AV?$basic_string@DU?$char_traits@D@std@@V?$allocator@D@2@@2@H@Z DD imagerel $LN7
	DD	imagerel $LN7+112
	DD	imagerel $unwind$?message@_Iostream_error_category@std@@UEBA?AV?$basic_string@DU?$char_traits@D@std@@V?$allocator@D@2@@2@H@Z
pdata	ENDS
;	COMDAT pdata
pdata	SEGMENT
$pdata$??1_Iostream_error_category@std@@UEAA@XZ DD imagerel $LN3
	DD	imagerel $LN3+24
	DD	imagerel $unwind$??1_Iostream_error_category@std@@UEAA@XZ
pdata	ENDS
;	COMDAT pdata
pdata	SEGMENT
$pdata$??_G_Iostream_error_category@std@@UEAAPEAXI@Z DD imagerel $LN4
	DD	imagerel $LN4+59
	DD	imagerel $unwind$??_G_Iostream_error_category@std@@UEAAPEAXI@Z
pdata	ENDS
;	COMDAT pdata
pdata	SEGMENT
$pdata$??$_Immortalize@V_Iostream_error_category@std@@@std@@YAAEAV_Iostream_error_category@0@XZ DD imagerel $LN5
	DD	imagerel $LN5+120
	DD	imagerel $unwind$??$_Immortalize@V_Iostream_error_category@std@@@std@@YAAEAV_Iostream_error_category@0@XZ
pdata	ENDS
;	COMDAT pdata
pdata	SEGMENT
$pdata$?dtor$0@?0???$_Immortalize@V_Iostream_error_category@std@@@std@@YAAEAV_Iostream_error_category@0@XZ@4HA DD imagerel ?dtor$0@?0???$_Immortalize@V_Iostream_error_category@std@@@std@@YAAEAV_Iostream_error_category@0@XZ@4HA
	DD	imagerel ?dtor$0@?0???$_Immortalize@V_Iostream_error_category@std@@@std@@YAAEAV_Iostream_error_category@0@XZ@4HA+27
	DD	imagerel $unwind$?dtor$0@?0???$_Immortalize@V_Iostream_error_category@std@@@std@@YAAEAV_Iostream_error_category@0@XZ@4HA
pdata	ENDS
;	COMDAT pdata
pdata	SEGMENT
$pdata$??0failure@ios_base@std@@QEAA@PEBDAEBVerror_code@2@@Z DD imagerel $LN4
	DD	imagerel $LN4+88
	DD	imagerel $unwind$??0failure@ios_base@std@@QEAA@PEBDAEBVerror_code@2@@Z
pdata	ENDS
;	COMDAT pdata
pdata	SEGMENT
$pdata$??1failure@ios_base@std@@UEAA@XZ DD imagerel $LN3
	DD	imagerel $LN3+24
	DD	imagerel $unwind$??1failure@ios_base@std@@UEAA@XZ
pdata	ENDS
;	COMDAT pdata
pdata	SEGMENT
$pdata$??0failure@ios_base@std@@QEAA@AEBV012@@Z DD imagerel $LN3
	DD	imagerel $LN3+54
	DD	imagerel $unwind$??0failure@ios_base@std@@QEAA@AEBV012@@Z
pdata	ENDS
;	COMDAT pdata
pdata	SEGMENT
$pdata$??_Gfailure@ios_base@std@@UEAAPEAXI@Z DD imagerel $LN4
	DD	imagerel $LN4+59
	DD	imagerel $unwind$??_Gfailure@ios_base@std@@UEAAPEAXI@Z
pdata	ENDS
;	COMDAT pdata
pdata	SEGMENT
$pdata$?clear@ios_base@std@@QEAAXH_N@Z DD imagerel $LN11
	DD	imagerel $LN11+340
	DD	imagerel $unwind$?clear@ios_base@std@@QEAAXH_N@Z
pdata	ENDS
;	COMDAT pdata
pdata	SEGMENT
$pdata$?clear@ios_base@std@@QEAAXH@Z DD imagerel $LN3
	DD	imagerel $LN3+35
	DD	imagerel $unwind$?clear@ios_base@std@@QEAAXH@Z
pdata	ENDS
;	COMDAT pdata
pdata	SEGMENT
$pdata$?good@ios_base@std@@QEBA_NXZ DD imagerel $LN5
	DD	imagerel $LN5+51
	DD	imagerel $unwind$?good@ios_base@std@@QEBA_NXZ
pdata	ENDS
;	COMDAT pdata
pdata	SEGMENT
$pdata$?width@ios_base@std@@QEAA_J_J@Z DD imagerel $LN3
	DD	imagerel $LN3+50
	DD	imagerel $unwind$?width@ios_base@std@@QEAA_J_J@Z
pdata	ENDS
;	COMDAT pdata
pdata	SEGMENT
$pdata$?getloc@ios_base@std@@QEBA?AVlocale@2@XZ DD imagerel $LN5
	DD	imagerel $LN5+62
	DD	imagerel $unwind$?getloc@ios_base@std@@QEBA?AVlocale@2@XZ
pdata	ENDS
;	COMDAT pdata
pdata	SEGMENT
$pdata$??1ios_base@std@@UEAA@XZ DD imagerel $LN3
	DD	imagerel $LN3+49
	DD	imagerel $unwind$??1ios_base@std@@UEAA@XZ
pdata	ENDS
;	COMDAT pdata
pdata	SEGMENT
$pdata$?_Init@ios_base@std@@IEAAXXZ DD imagerel $LN5
	DD	imagerel $LN5+191
	DD	imagerel $unwind$?_Init@ios_base@std@@IEAAXXZ
pdata	ENDS
;	COMDAT pdata
pdata	SEGMENT
$pdata$??_Gios_base@std@@UEAAPEAXI@Z DD imagerel $LN4
	DD	imagerel $LN4+59
	DD	imagerel $unwind$??_Gios_base@std@@UEAAPEAXI@Z
pdata	ENDS
;	COMDAT pdata
pdata	SEGMENT
$pdata$??0RtAudioError@@QEAA@AEBV?$basic_string@DU?$char_traits@D@std@@V?$allocator@D@2@@std@@W4Type@0@@Z DD imagerel $LN4
	DD	imagerel $LN4+71
	DD	imagerel $unwind$??0RtAudioError@@QEAA@AEBV?$basic_string@DU?$char_traits@D@std@@V?$allocator@D@2@@std@@W4Type@0@@Z
pdata	ENDS
;	COMDAT pdata
pdata	SEGMENT
$pdata$?printMessage@RtAudioError@@UEBAXXZ DD imagerel $LN3
	DD	imagerel $LN3+80
	DD	imagerel $unwind$?printMessage@RtAudioError@@UEBAXXZ
pdata	ENDS
;	COMDAT pdata
pdata	SEGMENT
$pdata$?getMessage@RtAudioError@@UEBA?BV?$basic_string@DU?$char_traits@D@std@@V?$allocator@D@2@@std@@XZ DD imagerel $LN5
	DD	imagerel $LN5+72
	DD	imagerel $unwind$?getMessage@RtAudioError@@UEBA?BV?$basic_string@DU?$char_traits@D@std@@V?$allocator@D@2@@std@@XZ
pdata	ENDS
;	COMDAT pdata
pdata	SEGMENT
$pdata$??1RtAudioError@@UEAA@XZ DD imagerel $LN3
	DD	imagerel $LN3+24
	DD	imagerel $unwind$??1RtAudioError@@UEAA@XZ
pdata	ENDS
;	COMDAT pdata
pdata	SEGMENT
$pdata$??0RtAudioError@@QEAA@AEBV0@@Z DD imagerel $LN3
	DD	imagerel $LN3+70
	DD	imagerel $unwind$??0RtAudioError@@QEAA@AEBV0@@Z
pdata	ENDS
;	COMDAT pdata
pdata	SEGMENT
$pdata$??_GRtAudioError@@UEAAPEAXI@Z DD imagerel $LN4
	DD	imagerel $LN4+59
	DD	imagerel $unwind$??_GRtAudioError@@UEAAPEAXI@Z
pdata	ENDS
;	COMDAT pdata
pdata	SEGMENT
$pdata$??1?$basic_ios@DU?$char_traits@D@std@@@std@@UEAA@XZ DD imagerel $LN3
	DD	imagerel $LN3+39
	DD	imagerel $unwind$??1?$basic_ios@DU?$char_traits@D@std@@@std@@UEAA@XZ
pdata	ENDS
;	COMDAT pdata
pdata	SEGMENT
$pdata$?clear@?$basic_ios@DU?$char_traits@D@std@@@std@@QEAAXH_N@Z DD imagerel $LN5
	DD	imagerel $LN5+76
	DD	imagerel $unwind$?clear@?$basic_ios@DU?$char_traits@D@std@@@std@@QEAAXH_N@Z
pdata	ENDS
;	COMDAT pdata
pdata	SEGMENT
$pdata$?setstate@?$basic_ios@DU?$char_traits@D@std@@@std@@QEAAXH_N@Z DD imagerel $LN4
	DD	imagerel $LN4+62
	DD	imagerel $unwind$?setstate@?$basic_ios@DU?$char_traits@D@std@@@std@@QEAAXH_N@Z
pdata	ENDS
;	COMDAT pdata
pdata	SEGMENT
$pdata$?widen@?$basic_ios@DU?$char_traits@D@std@@@std@@QEBADD@Z DD imagerel $LN4
	DD	imagerel $LN4+97
	DD	imagerel $unwind$?widen@?$basic_ios@DU?$char_traits@D@std@@@std@@QEBADD@Z
pdata	ENDS
;	COMDAT pdata
pdata	SEGMENT
$pdata$?dtor$0@?0??widen@?$basic_ios@DU?$char_traits@D@std@@@std@@QEBADD@Z@4HA DD imagerel ?dtor$0@?0??widen@?$basic_ios@DU?$char_traits@D@std@@@std@@QEBADD@Z@4HA
	DD	imagerel ?dtor$0@?0??widen@?$basic_ios@DU?$char_traits@D@std@@@std@@QEBADD@Z@4HA+24
	DD	imagerel $unwind$?dtor$0@?0??widen@?$basic_ios@DU?$char_traits@D@std@@@std@@QEBADD@Z@4HA
pdata	ENDS
;	COMDAT pdata
pdata	SEGMENT
$pdata$?init@?$basic_ios@DU?$char_traits@D@std@@@std@@IEAAXPEAV?$basic_streambuf@DU?$char_traits@D@std@@@2@_N@Z DD imagerel $LN5
	DD	imagerel $LN5+130
	DD	imagerel $unwind$?init@?$basic_ios@DU?$char_traits@D@std@@@std@@IEAAXPEAV?$basic_streambuf@DU?$char_traits@D@std@@@2@_N@Z
pdata	ENDS
;	COMDAT pdata
pdata	SEGMENT
$pdata$??0?$basic_ios@DU?$char_traits@D@std@@@std@@IEAA@XZ DD imagerel $LN4
	DD	imagerel $LN4+44
	DD	imagerel $unwind$??0?$basic_ios@DU?$char_traits@D@std@@@std@@IEAA@XZ
pdata	ENDS
;	COMDAT pdata
pdata	SEGMENT
$pdata$??_G?$basic_ios@DU?$char_traits@D@std@@@std@@UEAAPEAXI@Z DD imagerel $LN4
	DD	imagerel $LN4+59
	DD	imagerel $unwind$??_G?$basic_ios@DU?$char_traits@D@std@@@std@@UEAAPEAXI@Z
pdata	ENDS
;	COMDAT pdata
pdata	SEGMENT
$pdata$??0?$basic_ostream@DU?$char_traits@D@std@@@std@@QEAA@PEAV?$basic_streambuf@DU?$char_traits@D@std@@@1@_N@Z DD imagerel $LN6
	DD	imagerel $LN6+210
	DD	imagerel $unwind$??0?$basic_ostream@DU?$char_traits@D@std@@@std@@QEAA@PEAV?$basic_streambuf@DU?$char_traits@D@std@@@1@_N@Z
pdata	ENDS
;	COMDAT pdata
pdata	SEGMENT
$pdata$?dtor$0@?0???0?$basic_ostream@DU?$char_traits@D@std@@@std@@QEAA@PEAV?$basic_streambuf@DU?$char_traits@D@std@@@1@_N@Z@4HA DD imagerel ?dtor$0@?0???0?$basic_ostream@DU?$char_traits@D@std@@@std@@QEAA@PEAV?$basic_streambuf@DU?$char_traits@D@std@@@1@_N@Z@4HA
	DD	imagerel ?dtor$0@?0???0?$basic_ostream@DU?$char_traits@D@std@@@std@@QEAA@PEAV?$basic_streambuf@DU?$char_traits@D@std@@@1@_N@Z@4HA+42
	DD	imagerel $unwind$?dtor$0@?0???0?$basic_ostream@DU?$char_traits@D@std@@@std@@QEAA@PEAV?$basic_streambuf@DU?$char_traits@D@std@@@1@_N@Z@4HA
pdata	ENDS
;	COMDAT pdata
pdata	SEGMENT
$pdata$?_Osfx@?$basic_ostream@DU?$char_traits@D@std@@@std@@QEAAXXZ DD imagerel $LN11
	DD	imagerel $LN11+216
	DD	imagerel $unwind$?_Osfx@?$basic_ostream@DU?$char_traits@D@std@@@std@@QEAAXXZ
pdata	ENDS
;	COMDAT pdata
pdata	SEGMENT
$pdata$?catch$0@?0??_Osfx@?$basic_ostream@DU?$char_traits@D@std@@@std@@QEAAXXZ@4HA DD imagerel ?catch$0@?0??_Osfx@?$basic_ostream@DU?$char_traits@D@std@@@std@@QEAAXXZ@4HA
	DD	imagerel ?catch$0@?0??_Osfx@?$basic_ostream@DU?$char_traits@D@std@@@std@@QEAAXXZ@4HA+27
	DD	imagerel $unwind$?catch$0@?0??_Osfx@?$basic_ostream@DU?$char_traits@D@std@@@std@@QEAAXXZ@4HA
pdata	ENDS
;	COMDAT pdata
pdata	SEGMENT
$pdata$??6?$basic_ostream@DU?$char_traits@D@std@@@std@@QEAAAEAV01@P6AAEAV01@AEAV01@@Z@Z DD imagerel $LN3
	DD	imagerel $LN3+28
	DD	imagerel $unwind$??6?$basic_ostream@DU?$char_traits@D@std@@@std@@QEAAAEAV01@P6AAEAV01@AEAV01@@Z@Z
pdata	ENDS
;	COMDAT pdata
pdata	SEGMENT
$pdata$??6?$basic_ostream@DU?$char_traits@D@std@@@std@@QEAAAEAV01@I@Z DD imagerel $LN15
	DD	imagerel $LN15+513
	DD	imagerel $unwind$??6?$basic_ostream@DU?$char_traits@D@std@@@std@@QEAAAEAV01@I@Z
pdata	ENDS
;	COMDAT pdata
pdata	SEGMENT
$pdata$?dtor$0@?0???6?$basic_ostream@DU?$char_traits@D@std@@@std@@QEAAAEAV01@I@Z@4HA DD imagerel ?dtor$0@?0???6?$basic_ostream@DU?$char_traits@D@std@@@std@@QEAAAEAV01@I@Z@4HA
	DD	imagerel ?dtor$0@?0???6?$basic_ostream@DU?$char_traits@D@std@@@std@@QEAAAEAV01@I@Z@4HA+24
	DD	imagerel $unwind$?dtor$0@?0???6?$basic_ostream@DU?$char_traits@D@std@@@std@@QEAAAEAV01@I@Z@4HA
pdata	ENDS
;	COMDAT pdata
pdata	SEGMENT
$pdata$?dtor$1@?0???6?$basic_ostream@DU?$char_traits@D@std@@@std@@QEAAAEAV01@I@Z@4HA DD imagerel ?dtor$1@?0???6?$basic_ostream@DU?$char_traits@D@std@@@std@@QEAAAEAV01@I@Z@4HA
	DD	imagerel ?dtor$1@?0???6?$basic_ostream@DU?$char_traits@D@std@@@std@@QEAAAEAV01@I@Z@4HA+27
	DD	imagerel $unwind$?dtor$1@?0???6?$basic_ostream@DU?$char_traits@D@std@@@std@@QEAAAEAV01@I@Z@4HA
pdata	ENDS
;	COMDAT pdata
pdata	SEGMENT
$pdata$?catch$2@?0???6?$basic_ostream@DU?$char_traits@D@std@@@std@@QEAAAEAV01@I@Z@4HA DD imagerel ?catch$2@?0???6?$basic_ostream@DU?$char_traits@D@std@@@std@@QEAAAEAV01@I@Z@4HA
	DD	imagerel ?catch$2@?0???6?$basic_ostream@DU?$char_traits@D@std@@@std@@QEAAAEAV01@I@Z@4HA+71
	DD	imagerel $unwind$?catch$2@?0???6?$basic_ostream@DU?$char_traits@D@std@@@std@@QEAAAEAV01@I@Z@4HA
pdata	ENDS
;	COMDAT pdata
pdata	SEGMENT
$pdata$?put@?$basic_ostream@DU?$char_traits@D@std@@@std@@QEAAAEAV12@D@Z DD imagerel $LN13
	DD	imagerel $LN13+251
	DD	imagerel $unwind$?put@?$basic_ostream@DU?$char_traits@D@std@@@std@@QEAAAEAV12@D@Z
pdata	ENDS
;	COMDAT pdata
pdata	SEGMENT
$pdata$?dtor$0@?0??put@?$basic_ostream@DU?$char_traits@D@std@@@std@@QEAAAEAV12@D@Z@4HA DD imagerel ?dtor$0@?0??put@?$basic_ostream@DU?$char_traits@D@std@@@std@@QEAAAEAV12@D@Z@4HA
	DD	imagerel ?dtor$0@?0??put@?$basic_ostream@DU?$char_traits@D@std@@@std@@QEAAAEAV12@D@Z@4HA+24
	DD	imagerel $unwind$?dtor$0@?0??put@?$basic_ostream@DU?$char_traits@D@std@@@std@@QEAAAEAV12@D@Z@4HA
pdata	ENDS
;	COMDAT pdata
pdata	SEGMENT
$pdata$?catch$1@?0??put@?$basic_ostream@DU?$char_traits@D@std@@@std@@QEAAAEAV12@D@Z@4HA DD imagerel ?catch$1@?0??put@?$basic_ostream@DU?$char_traits@D@std@@@std@@QEAAAEAV12@D@Z@4HA
	DD	imagerel ?catch$1@?0??put@?$basic_ostream@DU?$char_traits@D@std@@@std@@QEAAAEAV12@D@Z@4HA+65
	DD	imagerel $unwind$?catch$1@?0??put@?$basic_ostream@DU?$char_traits@D@std@@@std@@QEAAAEAV12@D@Z@4HA
pdata	ENDS
;	COMDAT pdata
pdata	SEGMENT
$pdata$?flush@?$basic_ostream@DU?$char_traits@D@std@@@std@@QEAAAEAV12@XZ DD imagerel $LN6
	DD	imagerel $LN6+191
	DD	imagerel $unwind$?flush@?$basic_ostream@DU?$char_traits@D@std@@@std@@QEAAAEAV12@XZ
pdata	ENDS
;	COMDAT pdata
pdata	SEGMENT
$pdata$?dtor$0@?0??flush@?$basic_ostream@DU?$char_traits@D@std@@@std@@QEAAAEAV12@XZ@4HA DD imagerel ?dtor$0@?0??flush@?$basic_ostream@DU?$char_traits@D@std@@@std@@QEAAAEAV12@XZ@4HA
	DD	imagerel ?dtor$0@?0??flush@?$basic_ostream@DU?$char_traits@D@std@@@std@@QEAAAEAV12@XZ@4HA+24
	DD	imagerel $unwind$?dtor$0@?0??flush@?$basic_ostream@DU?$char_traits@D@std@@@std@@QEAAAEAV12@XZ@4HA
pdata	ENDS
;	COMDAT pdata
pdata	SEGMENT
$pdata$??_G?$basic_ostream@DU?$char_traits@D@std@@@std@@UEAAPEAXI@Z DD imagerel $LN4
	DD	imagerel $LN4+77
	DD	imagerel $unwind$??_G?$basic_ostream@DU?$char_traits@D@std@@@std@@UEAAPEAXI@Z
pdata	ENDS
;	COMDAT pdata
pdata	SEGMENT
$pdata$??_D?$basic_ostream@DU?$char_traits@D@std@@@std@@QEAAXXZ DD imagerel $LN3
	DD	imagerel $LN3+48
	DD	imagerel $unwind$??_D?$basic_ostream@DU?$char_traits@D@std@@@std@@QEAAXXZ
pdata	ENDS
;	COMDAT pdata
pdata	SEGMENT
$pdata$??$?6U?$char_traits@D@std@@@std@@YAAEAV?$basic_ostream@DU?$char_traits@D@std@@@0@AEAV10@PEBD@Z DD imagerel $LN25
	DD	imagerel $LN25+940
	DD	imagerel $unwind$??$?6U?$char_traits@D@std@@@std@@YAAEAV?$basic_ostream@DU?$char_traits@D@std@@@0@AEAV10@PEBD@Z
pdata	ENDS
;	COMDAT pdata
pdata	SEGMENT
$pdata$?dtor$0@?0???$?6U?$char_traits@D@std@@@std@@YAAEAV?$basic_ostream@DU?$char_traits@D@std@@@0@AEAV10@PEBD@Z@4HA DD imagerel ?dtor$0@?0???$?6U?$char_traits@D@std@@@std@@YAAEAV?$basic_ostream@DU?$char_traits@D@std@@@0@AEAV10@PEBD@Z@4HA
	DD	imagerel ?dtor$0@?0???$?6U?$char_traits@D@std@@@std@@YAAEAV?$basic_ostream@DU?$char_traits@D@std@@@0@AEAV10@PEBD@Z@4HA+27
	DD	imagerel $unwind$?dtor$0@?0???$?6U?$char_traits@D@std@@@std@@YAAEAV?$basic_ostream@DU?$char_traits@D@std@@@0@AEAV10@PEBD@Z@4HA
pdata	ENDS
;	COMDAT pdata
pdata	SEGMENT
$pdata$?catch$1@?0???$?6U?$char_traits@D@std@@@std@@YAAEAV?$basic_ostream@DU?$char_traits@D@std@@@0@AEAV10@PEBD@Z@4HA DD imagerel ?catch$1@?0???$?6U?$char_traits@D@std@@@std@@YAAEAV?$basic_ostream@DU?$char_traits@D@std@@@0@AEAV10@PEBD@Z@4HA
	DD	imagerel ?catch$1@?0???$?6U?$char_traits@D@std@@@std@@YAAEAV?$basic_ostream@DU?$char_traits@D@std@@@0@AEAV10@PEBD@Z@4HA+71
	DD	imagerel $unwind$?catch$1@?0???$?6U?$char_traits@D@std@@@std@@YAAEAV?$basic_ostream@DU?$char_traits@D@std@@@0@AEAV10@PEBD@Z@4HA
pdata	ENDS
;	COMDAT pdata
pdata	SEGMENT
$pdata$??$?6U?$char_traits@D@std@@@std@@YAAEAV?$basic_ostream@DU?$char_traits@D@std@@@0@AEAV10@D@Z DD imagerel $LN23
	DD	imagerel $LN23+885
	DD	imagerel $unwind$??$?6U?$char_traits@D@std@@@std@@YAAEAV?$basic_ostream@DU?$char_traits@D@std@@@0@AEAV10@D@Z
pdata	ENDS
;	COMDAT pdata
pdata	SEGMENT
$pdata$?dtor$0@?0???$?6U?$char_traits@D@std@@@std@@YAAEAV?$basic_ostream@DU?$char_traits@D@std@@@0@AEAV10@D@Z@4HA DD imagerel ?dtor$0@?0???$?6U?$char_traits@D@std@@@std@@YAAEAV?$basic_ostream@DU?$char_traits@D@std@@@0@AEAV10@D@Z@4HA
	DD	imagerel ?dtor$0@?0???$?6U?$char_traits@D@std@@@std@@YAAEAV?$basic_ostream@DU?$char_traits@D@std@@@0@AEAV10@D@Z@4HA+27
	DD	imagerel $unwind$?dtor$0@?0???$?6U?$char_traits@D@std@@@std@@YAAEAV?$basic_ostream@DU?$char_traits@D@std@@@0@AEAV10@D@Z@4HA
pdata	ENDS
;	COMDAT pdata
pdata	SEGMENT
$pdata$?catch$1@?0???$?6U?$char_traits@D@std@@@std@@YAAEAV?$basic_ostream@DU?$char_traits@D@std@@@0@AEAV10@D@Z@4HA DD imagerel ?catch$1@?0???$?6U?$char_traits@D@std@@@std@@YAAEAV?$basic_ostream@DU?$char_traits@D@std@@@0@AEAV10@D@Z@4HA
	DD	imagerel ?catch$1@?0???$?6U?$char_traits@D@std@@@std@@YAAEAV?$basic_ostream@DU?$char_traits@D@std@@@0@AEAV10@D@Z@4HA+71
	DD	imagerel $unwind$?catch$1@?0???$?6U?$char_traits@D@std@@@std@@YAAEAV?$basic_ostream@DU?$char_traits@D@std@@@0@AEAV10@D@Z@4HA
pdata	ENDS
;	COMDAT pdata
pdata	SEGMENT
$pdata$?deallocate@?$allocator@I@std@@QEAAXPEAI_K@Z DD imagerel $LN3
	DD	imagerel $LN3+45
	DD	imagerel $unwind$?deallocate@?$allocator@I@std@@QEAAXPEAI_K@Z
pdata	ENDS
;	COMDAT pdata
pdata	SEGMENT
$pdata$?allocate@?$allocator@I@std@@QEAAPEAI_K@Z DD imagerel $LN3
	DD	imagerel $LN3+37
	DD	imagerel $unwind$?allocate@?$allocator@I@std@@QEAAPEAI_K@Z
pdata	ENDS
;	COMDAT pdata
pdata	SEGMENT
$pdata$?max_size@?$allocator_traits@V?$allocator@I@std@@@std@@SA_KAEBV?$allocator@I@2@@Z DD imagerel $LN3
	DD	imagerel $LN3+24
	DD	imagerel $unwind$?max_size@?$allocator_traits@V?$allocator@I@std@@@std@@SA_KAEBV?$allocator@I@2@@Z
pdata	ENDS
;	COMDAT pdata
pdata	SEGMENT
$pdata$??0?$_Wrap_alloc@V?$allocator@I@std@@@std@@QEAA@XZ DD imagerel $LN3
	DD	imagerel $LN3+29
	DD	imagerel $unwind$??0?$_Wrap_alloc@V?$allocator@I@std@@@std@@QEAA@XZ
pdata	ENDS
;	COMDAT pdata
pdata	SEGMENT
$pdata$??0?$_Wrap_alloc@V?$allocator@I@std@@@std@@QEAA@$$QEAU01@@Z DD imagerel $LN3
	DD	imagerel $LN3+47
	DD	imagerel $unwind$??0?$_Wrap_alloc@V?$allocator@I@std@@@std@@QEAA@$$QEAU01@@Z
pdata	ENDS
;	COMDAT pdata
pdata	SEGMENT
$pdata$?allocate@?$_Wrap_alloc@V?$allocator@I@std@@@std@@QEAAPEAI_K@Z DD imagerel $LN3
	DD	imagerel $LN3+34
	DD	imagerel $unwind$?allocate@?$_Wrap_alloc@V?$allocator@I@std@@@std@@QEAAPEAI_K@Z
pdata	ENDS
;	COMDAT pdata
pdata	SEGMENT
$pdata$?deallocate@?$_Wrap_alloc@V?$allocator@I@std@@@std@@QEAAXPEAI_K@Z DD imagerel $LN3
	DD	imagerel $LN3+44
	DD	imagerel $unwind$?deallocate@?$_Wrap_alloc@V?$allocator@I@std@@@std@@QEAAXPEAI_K@Z
pdata	ENDS
;	COMDAT pdata
pdata	SEGMENT
$pdata$?max_size@?$_Wrap_alloc@V?$allocator@I@std@@@std@@QEBA_KU_Nil@2@@Z DD imagerel $LN3
	DD	imagerel $LN3+28
	DD	imagerel $unwind$?max_size@?$_Wrap_alloc@V?$allocator@I@std@@@std@@QEBA_KU_Nil@2@@Z
pdata	ENDS
;	COMDAT pdata
pdata	SEGMENT
$pdata$??0?$_Vector_alloc@U?$_Vec_base_types@IV?$allocator@I@std@@@std@@@std@@QEAA@XZ DD imagerel $LN3
	DD	imagerel $LN3+37
	DD	imagerel $unwind$??0?$_Vector_alloc@U?$_Vec_base_types@IV?$allocator@I@std@@@std@@@std@@QEAA@XZ
pdata	ENDS
;	COMDAT pdata
pdata	SEGMENT
$pdata$?_Orphan_all@?$_Vector_alloc@U?$_Vec_base_types@IV?$allocator@I@std@@@std@@@std@@QEAAXXZ DD imagerel $LN3
	DD	imagerel $LN3+32
	DD	imagerel $unwind$?_Orphan_all@?$_Vector_alloc@U?$_Vec_base_types@IV?$allocator@I@std@@@std@@@std@@QEAAXXZ
pdata	ENDS
;	COMDAT pdata
pdata	SEGMENT
$pdata$?_Swap_all@?$_Vector_alloc@U?$_Vec_base_types@IV?$allocator@I@std@@@std@@@std@@QEAAXAEAV12@@Z DD imagerel $LN3
	DD	imagerel $LN3+60
	DD	imagerel $unwind$?_Swap_all@?$_Vector_alloc@U?$_Vec_base_types@IV?$allocator@I@std@@@std@@@std@@QEAAXAEAV12@@Z
pdata	ENDS
;	COMDAT pdata
pdata	SEGMENT
$pdata$?_Getal@?$_Vector_alloc@U?$_Vec_base_types@IV?$allocator@I@std@@@std@@@std@@QEAAAEAU?$_Wrap_alloc@V?$allocator@I@std@@@2@XZ DD imagerel $LN3
	DD	imagerel $LN3+27
	DD	imagerel $unwind$?_Getal@?$_Vector_alloc@U?$_Vec_base_types@IV?$allocator@I@std@@@std@@@std@@QEAAAEAU?$_Wrap_alloc@V?$allocator@I@std@@@2@XZ
pdata	ENDS
;	COMDAT pdata
pdata	SEGMENT
$pdata$?_Getal@?$_Vector_alloc@U?$_Vec_base_types@IV?$allocator@I@std@@@std@@@std@@QEBAAEBU?$_Wrap_alloc@V?$allocator@I@std@@@2@XZ DD imagerel $LN3
	DD	imagerel $LN3+27
	DD	imagerel $unwind$?_Getal@?$_Vector_alloc@U?$_Vec_base_types@IV?$allocator@I@std@@@std@@@std@@QEBAAEBU?$_Wrap_alloc@V?$allocator@I@std@@@2@XZ
pdata	ENDS
;	COMDAT pdata
pdata	SEGMENT
$pdata$?_Get_data@?$_Vector_alloc@U?$_Vec_base_types@IV?$allocator@I@std@@@std@@@std@@QEAAAEAV?$_Vector_val@U?$_Simple_types@I@std@@@2@XZ DD imagerel $LN3
	DD	imagerel $LN3+27
	DD	imagerel $unwind$?_Get_data@?$_Vector_alloc@U?$_Vec_base_types@IV?$allocator@I@std@@@std@@@std@@QEAAAEAV?$_Vector_val@U?$_Simple_types@I@std@@@2@XZ
pdata	ENDS
;	COMDAT pdata
pdata	SEGMENT
$pdata$?_Get_data@?$_Vector_alloc@U?$_Vec_base_types@IV?$allocator@I@std@@@std@@@std@@QEBAAEBV?$_Vector_val@U?$_Simple_types@I@std@@@2@XZ DD imagerel $LN3
	DD	imagerel $LN3+27
	DD	imagerel $unwind$?_Get_data@?$_Vector_alloc@U?$_Vec_base_types@IV?$allocator@I@std@@@std@@@std@@QEBAAEBV?$_Vector_val@U?$_Simple_types@I@std@@@2@XZ
pdata	ENDS
;	COMDAT pdata
pdata	SEGMENT
$pdata$?_Myfirst@?$_Vector_alloc@U?$_Vec_base_types@IV?$allocator@I@std@@@std@@@std@@QEAAAEAPEAIXZ DD imagerel $LN3
	DD	imagerel $LN3+24
	DD	imagerel $unwind$?_Myfirst@?$_Vector_alloc@U?$_Vec_base_types@IV?$allocator@I@std@@@std@@@std@@QEAAAEAPEAIXZ
pdata	ENDS
;	COMDAT pdata
pdata	SEGMENT
$pdata$?_Myfirst@?$_Vector_alloc@U?$_Vec_base_types@IV?$allocator@I@std@@@std@@@std@@QEBAAEBQEAIXZ DD imagerel $LN3
	DD	imagerel $LN3+24
	DD	imagerel $unwind$?_Myfirst@?$_Vector_alloc@U?$_Vec_base_types@IV?$allocator@I@std@@@std@@@std@@QEBAAEBQEAIXZ
pdata	ENDS
;	COMDAT pdata
pdata	SEGMENT
$pdata$?_Mylast@?$_Vector_alloc@U?$_Vec_base_types@IV?$allocator@I@std@@@std@@@std@@QEAAAEAPEAIXZ DD imagerel $LN3
	DD	imagerel $LN3+28
	DD	imagerel $unwind$?_Mylast@?$_Vector_alloc@U?$_Vec_base_types@IV?$allocator@I@std@@@std@@@std@@QEAAAEAPEAIXZ
pdata	ENDS
;	COMDAT pdata
pdata	SEGMENT
$pdata$?_Mylast@?$_Vector_alloc@U?$_Vec_base_types@IV?$allocator@I@std@@@std@@@std@@QEBAAEBQEAIXZ DD imagerel $LN3
	DD	imagerel $LN3+28
	DD	imagerel $unwind$?_Mylast@?$_Vector_alloc@U?$_Vec_base_types@IV?$allocator@I@std@@@std@@@std@@QEBAAEBQEAIXZ
pdata	ENDS
;	COMDAT pdata
pdata	SEGMENT
$pdata$?_Myend@?$_Vector_alloc@U?$_Vec_base_types@IV?$allocator@I@std@@@std@@@std@@QEAAAEAPEAIXZ DD imagerel $LN3
	DD	imagerel $LN3+28
	DD	imagerel $unwind$?_Myend@?$_Vector_alloc@U?$_Vec_base_types@IV?$allocator@I@std@@@std@@@std@@QEAAAEAPEAIXZ
pdata	ENDS
;	COMDAT pdata
pdata	SEGMENT
$pdata$?_Myend@?$_Vector_alloc@U?$_Vec_base_types@IV?$allocator@I@std@@@std@@@std@@QEBAAEBQEAIXZ DD imagerel $LN3
	DD	imagerel $LN3+28
	DD	imagerel $unwind$?_Myend@?$_Vector_alloc@U?$_Vec_base_types@IV?$allocator@I@std@@@std@@@std@@QEBAAEBQEAIXZ
pdata	ENDS
;	COMDAT pdata
pdata	SEGMENT
$pdata$??0?$vector@IV?$allocator@I@std@@@std@@QEAA@XZ DD imagerel $LN3
	DD	imagerel $LN3+39
	DD	imagerel $unwind$??0?$vector@IV?$allocator@I@std@@@std@@QEAA@XZ
pdata	ENDS
;	COMDAT pdata
pdata	SEGMENT
$pdata$??0?$vector@IV?$allocator@I@std@@@std@@QEAA@$$QEAV01@@Z DD imagerel $LN3
	DD	imagerel $LN3+98
	DD	imagerel $unwind$??0?$vector@IV?$allocator@I@std@@@std@@QEAA@$$QEAV01@@Z
pdata	ENDS
;	COMDAT pdata
pdata	SEGMENT
$pdata$?_Assign_rv@?$vector@IV?$allocator@I@std@@@std@@QEAAX$$QEAV12@U?$integral_constant@_N$00@2@@Z DD imagerel $LN3
	DD	imagerel $LN3+198
	DD	imagerel $unwind$?_Assign_rv@?$vector@IV?$allocator@I@std@@@std@@QEAAX$$QEAV12@U?$integral_constant@_N$00@2@@Z
pdata	ENDS
;	COMDAT pdata
pdata	SEGMENT
$pdata$?push_back@?$vector@IV?$allocator@I@std@@@std@@QEAAX$$QEAI@Z DD imagerel $LN7
	DD	imagerel $LN7+621
	DD	imagerel $unwind$?push_back@?$vector@IV?$allocator@I@std@@@std@@QEAAX$$QEAI@Z
pdata	ENDS
;	COMDAT pdata
pdata	SEGMENT
$pdata$??1?$vector@IV?$allocator@I@std@@@std@@QEAA@XZ DD imagerel $LN3
	DD	imagerel $LN3+34
	DD	imagerel $unwind$??1?$vector@IV?$allocator@I@std@@@std@@QEAA@XZ
pdata	ENDS
;	COMDAT pdata
pdata	SEGMENT
$pdata$?capacity@?$vector@IV?$allocator@I@std@@@std@@QEBA_KXZ DD imagerel $LN3
	DD	imagerel $LN3+60
	DD	imagerel $unwind$?capacity@?$vector@IV?$allocator@I@std@@@std@@QEBA_KXZ
pdata	ENDS
;	COMDAT pdata
pdata	SEGMENT
$pdata$?_Unused_capacity@?$vector@IV?$allocator@I@std@@@std@@QEBA_KXZ DD imagerel $LN3
	DD	imagerel $LN3+60
	DD	imagerel $unwind$?_Unused_capacity@?$vector@IV?$allocator@I@std@@@std@@QEBA_KXZ
pdata	ENDS
;	COMDAT pdata
pdata	SEGMENT
$pdata$?begin@?$vector@IV?$allocator@I@std@@@std@@QEAA?AV?$_Vector_iterator@V?$_Vector_val@U?$_Simple_types@I@std@@@std@@@2@XZ DD imagerel $LN3
	DD	imagerel $LN3+82
	DD	imagerel $unwind$?begin@?$vector@IV?$allocator@I@std@@@std@@QEAA?AV?$_Vector_iterator@V?$_Vector_val@U?$_Simple_types@I@std@@@std@@@2@XZ
pdata	ENDS
;	COMDAT pdata
pdata	SEGMENT
$pdata$?end@?$vector@IV?$allocator@I@std@@@std@@QEAA?AV?$_Vector_iterator@V?$_Vector_val@U?$_Simple_types@I@std@@@std@@@2@XZ DD imagerel $LN3
	DD	imagerel $LN3+82
	DD	imagerel $unwind$?end@?$vector@IV?$allocator@I@std@@@std@@QEAA?AV?$_Vector_iterator@V?$_Vector_val@U?$_Simple_types@I@std@@@std@@@2@XZ
pdata	ENDS
;	COMDAT pdata
pdata	SEGMENT
$pdata$?size@?$vector@IV?$allocator@I@std@@@std@@QEBA_KXZ DD imagerel $LN3
	DD	imagerel $LN3+60
	DD	imagerel $unwind$?size@?$vector@IV?$allocator@I@std@@@std@@QEBA_KXZ
pdata	ENDS
;	COMDAT pdata
pdata	SEGMENT
$pdata$?max_size@?$vector@IV?$allocator@I@std@@@std@@QEBA_KXZ DD imagerel $LN3
	DD	imagerel $LN3+37
	DD	imagerel $unwind$?max_size@?$vector@IV?$allocator@I@std@@@std@@QEBA_KXZ
pdata	ENDS
;	COMDAT pdata
pdata	SEGMENT
$pdata$??A?$vector@IV?$allocator@I@std@@@std@@QEAAAEAI_K@Z DD imagerel $LN3
	DD	imagerel $LN3+41
	DD	imagerel $unwind$??A?$vector@IV?$allocator@I@std@@@std@@QEAAAEAI_K@Z
pdata	ENDS
;	COMDAT pdata
pdata	SEGMENT
$pdata$?push_back@?$vector@IV?$allocator@I@std@@@std@@QEAAXAEBI@Z DD imagerel $LN7
	DD	imagerel $LN7+595
	DD	imagerel $unwind$?push_back@?$vector@IV?$allocator@I@std@@@std@@QEAAXAEBI@Z
pdata	ENDS
;	COMDAT pdata
pdata	SEGMENT
$pdata$?clear@?$vector@IV?$allocator@I@std@@@std@@QEAAXXZ DD imagerel $LN3
	DD	imagerel $LN3+121
	DD	imagerel $unwind$?clear@?$vector@IV?$allocator@I@std@@@std@@QEAAXXZ
pdata	ENDS
;	COMDAT pdata
pdata	SEGMENT
$pdata$?_Destroy@?$vector@IV?$allocator@I@std@@@std@@IEAAXPEAI0@Z DD imagerel $LN3
	DD	imagerel $LN3+52
	DD	imagerel $unwind$?_Destroy@?$vector@IV?$allocator@I@std@@@std@@IEAAXPEAI0@Z
pdata	ENDS
;	COMDAT pdata
pdata	SEGMENT
$pdata$?_Grow_to@?$vector@IV?$allocator@I@std@@@std@@IEBA_K_K@Z DD imagerel $LN6
	DD	imagerel $LN6+161
	DD	imagerel $unwind$?_Grow_to@?$vector@IV?$allocator@I@std@@@std@@IEBA_K_K@Z
pdata	ENDS
;	COMDAT pdata
pdata	SEGMENT
$pdata$?_Inside@?$vector@IV?$allocator@I@std@@@std@@IEBA_NPEBI@Z DD imagerel $LN5
	DD	imagerel $LN5+92
	DD	imagerel $unwind$?_Inside@?$vector@IV?$allocator@I@std@@@std@@IEBA_NPEBI@Z
pdata	ENDS
;	COMDAT pdata
pdata	SEGMENT
$pdata$?_Reallocate@?$vector@IV?$allocator@I@std@@@std@@IEAAX_K@Z DD imagerel $LN11
	DD	imagerel $LN11+447
	DD	imagerel $unwind$?_Reallocate@?$vector@IV?$allocator@I@std@@@std@@IEAAX_K@Z
pdata	ENDS
;	COMDAT pdata
pdata	SEGMENT
$pdata$?catch$0@?0??_Reallocate@?$vector@IV?$allocator@I@std@@@std@@IEAAX_K@Z@4HA DD imagerel ?catch$0@?0??_Reallocate@?$vector@IV?$allocator@I@std@@@std@@IEAAX_K@Z@4HA
	DD	imagerel ?catch$0@?0??_Reallocate@?$vector@IV?$allocator@I@std@@@std@@IEAAX_K@Z@4HA+68
	DD	imagerel $unwind$?catch$0@?0??_Reallocate@?$vector@IV?$allocator@I@std@@@std@@IEAAX_K@Z@4HA
pdata	ENDS
;	COMDAT pdata
pdata	SEGMENT
$pdata$?_Reserve@?$vector@IV?$allocator@I@std@@@std@@IEAAX_K@Z DD imagerel $LN5
	DD	imagerel $LN5+130
	DD	imagerel $unwind$?_Reserve@?$vector@IV?$allocator@I@std@@@std@@IEAAX_K@Z
pdata	ENDS
;	COMDAT pdata
pdata	SEGMENT
$pdata$?_Tidy@?$vector@IV?$allocator@I@std@@@std@@IEAAXXZ DD imagerel $LN4
	DD	imagerel $LN4+241
	DD	imagerel $unwind$?_Tidy@?$vector@IV?$allocator@I@std@@@std@@IEAAXXZ
pdata	ENDS
;	COMDAT pdata
pdata	SEGMENT
$pdata$?_Xlen@?$vector@IV?$allocator@I@std@@@std@@IEBAXXZ DD imagerel $LN3
	DD	imagerel $LN3+26
	DD	imagerel $unwind$?_Xlen@?$vector@IV?$allocator@I@std@@@std@@IEBAXXZ
pdata	ENDS
;	COMDAT pdata
pdata	SEGMENT
$pdata$??0DeviceInfo@RtAudio@@QEAA@XZ DD imagerel $LN5
	DD	imagerel $LN5+139
	DD	imagerel $unwind$??0DeviceInfo@RtAudio@@QEAA@XZ
pdata	ENDS
;	COMDAT pdata
pdata	SEGMENT
$pdata$??1DeviceInfo@RtAudio@@QEAA@XZ DD imagerel $LN3
	DD	imagerel $LN3+48
	DD	imagerel $unwind$??1DeviceInfo@RtAudio@@QEAA@XZ
pdata	ENDS
;	COMDAT pdata
pdata	SEGMENT
$pdata$??0DeviceInfo@RtAudio@@QEAA@$$QEAU01@@Z DD imagerel $LN3
	DD	imagerel $LN3+205
	DD	imagerel $unwind$??0DeviceInfo@RtAudio@@QEAA@$$QEAU01@@Z
pdata	ENDS
pdata	SEGMENT
$pdata$?getVersion@RtAudio@@SA?AV?$basic_string@DU?$char_traits@D@std@@V?$allocator@D@2@@std@@XZ DD imagerel $LN5
	DD	imagerel $LN5+55
	DD	imagerel $unwind$?getVersion@RtAudio@@SA?AV?$basic_string@DU?$char_traits@D@std@@V?$allocator@D@2@@std@@XZ
$pdata$?getCompiledApi@RtAudio@@SAXAEAV?$vector@W4Api@RtAudio@@V?$allocator@W4Api@RtAudio@@@std@@@std@@@Z DD imagerel $LN3
	DD	imagerel $LN3+47
	DD	imagerel $unwind$?getCompiledApi@RtAudio@@SAXAEAV?$vector@W4Api@RtAudio@@V?$allocator@W4Api@RtAudio@@@std@@@std@@@Z
$pdata$??0RtAudio@@QEAA@W4Api@0@@Z DD imagerel $LN13
	DD	imagerel $LN13+428
	DD	imagerel $unwind$??0RtAudio@@QEAA@W4Api@0@@Z
pdata	ENDS
pdata	SEGMENT
$pdata$?dtor$0@?0???0RtAudio@@QEAA@W4Api@0@@Z@4HA DD imagerel ?dtor$0@?0???0RtAudio@@QEAA@W4Api@0@@Z@4HA
	DD	imagerel ?dtor$0@?0???0RtAudio@@QEAA@W4Api@0@@Z@4HA+24
	DD	imagerel $unwind$?dtor$0@?0???0RtAudio@@QEAA@W4Api@0@@Z@4HA
$pdata$?dtor$1@?0???0RtAudio@@QEAA@W4Api@0@@Z@4HA DD imagerel ?dtor$1@?0???0RtAudio@@QEAA@W4Api@0@@Z@4HA
	DD	imagerel ?dtor$1@?0???0RtAudio@@QEAA@W4Api@0@@Z@4HA+24
	DD	imagerel $unwind$?dtor$1@?0???0RtAudio@@QEAA@W4Api@0@@Z@4HA
pdata	ENDS
pdata	SEGMENT
$pdata$??1RtAudio@@QEAA@XZ DD imagerel $LN6
	DD	imagerel $LN6+92
	DD	imagerel $unwind$??1RtAudio@@QEAA@XZ
$pdata$?openStream@RtAudio@@QEAAXPEAUStreamParameters@1@0KIPEAIP6AHPEAX2INI2@Z2PEAUStreamOptions@1@P6AXW4Type@RtAudioError@@AEBV?$basic_string@DU?$char_traits@D@std@@V?$allocator@D@2@@std@@@Z@Z DD imagerel $LN3
	DD	imagerel $LN3+133
	DD	imagerel $unwind$?openStream@RtAudio@@QEAAXPEAUStreamParameters@1@0KIPEAIP6AHPEAX2INI2@Z2PEAUStreamOptions@1@P6AXW4Type@RtAudioError@@AEBV?$basic_string@DU?$char_traits@D@std@@V?$allocator@D@2@@std@@@Z@Z
$pdata$?openRtApi@RtAudio@@IEAAXW4Api@1@@Z DD imagerel $LN10
	DD	imagerel $LN10+196
	DD	imagerel $unwind$?openRtApi@RtAudio@@IEAAXW4Api@1@@Z
pdata	ENDS
pdata	SEGMENT
$pdata$?dtor$0@?0??openRtApi@RtAudio@@IEAAXW4Api@1@@Z@4HA DD imagerel ?dtor$0@?0??openRtApi@RtAudio@@IEAAXW4Api@1@@Z@4HA
	DD	imagerel ?dtor$0@?0??openRtApi@RtAudio@@IEAAXW4Api@1@@Z@4HA+29
	DD	imagerel $unwind$?dtor$0@?0??openRtApi@RtAudio@@IEAAXW4Api@1@@Z@4HA
pdata	ENDS
;	COMDAT pdata
pdata	SEGMENT
$pdata$?asInt@S24@@QEAAHXZ DD imagerel $LN4
	DD	imagerel $LN4+107
	DD	imagerel $unwind$?asInt@S24@@QEAAHXZ
pdata	ENDS
pdata	SEGMENT
$pdata$??0RtApi@@QEAA@XZ DD imagerel $LN6
	DD	imagerel $LN6+253
	DD	imagerel $unwind$??0RtApi@@QEAA@XZ
pdata	ENDS
pdata	SEGMENT
$pdata$?dtor$0@?0???0RtApi@@QEAA@XZ@4HA DD imagerel ?dtor$0@?0???0RtApi@@QEAA@XZ@4HA
	DD	imagerel ?dtor$0@?0???0RtApi@@QEAA@XZ@4HA+28
	DD	imagerel $unwind$?dtor$0@?0???0RtApi@@QEAA@XZ@4HA
$pdata$?dtor$1@?0???0RtApi@@QEAA@XZ@4HA DD imagerel ?dtor$1@?0???0RtApi@@QEAA@XZ@4HA
	DD	imagerel ?dtor$1@?0???0RtApi@@QEAA@XZ@4HA+31
	DD	imagerel $unwind$?dtor$1@?0???0RtApi@@QEAA@XZ@4HA
pdata	ENDS
pdata	SEGMENT
$pdata$??1RtApi@@UEAA@XZ DD imagerel $LN3
	DD	imagerel $LN3+104
	DD	imagerel $unwind$??1RtApi@@UEAA@XZ
$pdata$?openStream@RtApi@@QEAAXPEAUStreamParameters@RtAudio@@0KIPEAIP6AHPEAX2INI2@Z2PEAUStreamOptions@3@P6AXW4Type@RtAudioError@@AEBV?$basic_string@DU?$char_traits@D@std@@V?$allocator@D@2@@std@@@Z@Z DD imagerel $LN18
	DD	imagerel $LN18+973
	DD	imagerel $unwind$?openStream@RtApi@@QEAAXPEAUStreamParameters@RtAudio@@0KIPEAIP6AHPEAX2INI2@Z2PEAUStreamOptions@3@P6AXW4Type@RtAudioError@@AEBV?$basic_string@DU?$char_traits@D@std@@V?$allocator@D@2@@std@@@Z@Z
$pdata$?getStreamLatency@RtApi@@QEAAJXZ DD imagerel $LN7
	DD	imagerel $LN7+150
	DD	imagerel $unwind$?getStreamLatency@RtApi@@QEAAJXZ
$pdata$?getStreamSampleRate@RtApi@@QEAAIXZ DD imagerel $LN3
	DD	imagerel $LN3+35
	DD	imagerel $unwind$?getStreamSampleRate@RtApi@@QEAAIXZ
$pdata$?getStreamTime@RtApi@@UEAANXZ DD imagerel $LN3
	DD	imagerel $LN3+37
	DD	imagerel $unwind$?getStreamTime@RtApi@@UEAANXZ
$pdata$?setStreamTime@RtApi@@UEAAXN@Z DD imagerel $LN4
	DD	imagerel $LN4+65
	DD	imagerel $unwind$?setStreamTime@RtApi@@UEAAXN@Z
pdata	ENDS
;	COMDAT pdata
pdata	SEGMENT
$pdata$?deallocate@?$allocator@H@std@@QEAAXPEAH_K@Z DD imagerel $LN3
	DD	imagerel $LN3+45
	DD	imagerel $unwind$?deallocate@?$allocator@H@std@@QEAAXPEAH_K@Z
pdata	ENDS
;	COMDAT pdata
pdata	SEGMENT
$pdata$?allocate@?$allocator@H@std@@QEAAPEAH_K@Z DD imagerel $LN3
	DD	imagerel $LN3+37
	DD	imagerel $unwind$?allocate@?$allocator@H@std@@QEAAPEAH_K@Z
pdata	ENDS
;	COMDAT pdata
pdata	SEGMENT
$pdata$?max_size@?$allocator_traits@V?$allocator@H@std@@@std@@SA_KAEBV?$allocator@H@2@@Z DD imagerel $LN3
	DD	imagerel $LN3+24
	DD	imagerel $unwind$?max_size@?$allocator_traits@V?$allocator@H@std@@@std@@SA_KAEBV?$allocator@H@2@@Z
pdata	ENDS
;	COMDAT pdata
pdata	SEGMENT
$pdata$??0?$_Wrap_alloc@V?$allocator@H@std@@@std@@QEAA@XZ DD imagerel $LN3
	DD	imagerel $LN3+29
	DD	imagerel $unwind$??0?$_Wrap_alloc@V?$allocator@H@std@@@std@@QEAA@XZ
pdata	ENDS
;	COMDAT pdata
pdata	SEGMENT
$pdata$?allocate@?$_Wrap_alloc@V?$allocator@H@std@@@std@@QEAAPEAH_K@Z DD imagerel $LN3
	DD	imagerel $LN3+34
	DD	imagerel $unwind$?allocate@?$_Wrap_alloc@V?$allocator@H@std@@@std@@QEAAPEAH_K@Z
pdata	ENDS
;	COMDAT pdata
pdata	SEGMENT
$pdata$?deallocate@?$_Wrap_alloc@V?$allocator@H@std@@@std@@QEAAXPEAH_K@Z DD imagerel $LN3
	DD	imagerel $LN3+44
	DD	imagerel $unwind$?deallocate@?$_Wrap_alloc@V?$allocator@H@std@@@std@@QEAAXPEAH_K@Z
pdata	ENDS
;	COMDAT pdata
pdata	SEGMENT
$pdata$?max_size@?$_Wrap_alloc@V?$allocator@H@std@@@std@@QEBA_KU_Nil@2@@Z DD imagerel $LN3
	DD	imagerel $LN3+28
	DD	imagerel $unwind$?max_size@?$_Wrap_alloc@V?$allocator@H@std@@@std@@QEBA_KU_Nil@2@@Z
pdata	ENDS
;	COMDAT pdata
pdata	SEGMENT
$pdata$??0?$_Vector_alloc@U?$_Vec_base_types@HV?$allocator@H@std@@@std@@@std@@QEAA@XZ DD imagerel $LN3
	DD	imagerel $LN3+37
	DD	imagerel $unwind$??0?$_Vector_alloc@U?$_Vec_base_types@HV?$allocator@H@std@@@std@@@std@@QEAA@XZ
pdata	ENDS
;	COMDAT pdata
pdata	SEGMENT
$pdata$?_Orphan_all@?$_Vector_alloc@U?$_Vec_base_types@HV?$allocator@H@std@@@std@@@std@@QEAAXXZ DD imagerel $LN3
	DD	imagerel $LN3+32
	DD	imagerel $unwind$?_Orphan_all@?$_Vector_alloc@U?$_Vec_base_types@HV?$allocator@H@std@@@std@@@std@@QEAAXXZ
pdata	ENDS
;	COMDAT pdata
pdata	SEGMENT
$pdata$?_Getal@?$_Vector_alloc@U?$_Vec_base_types@HV?$allocator@H@std@@@std@@@std@@QEAAAEAU?$_Wrap_alloc@V?$allocator@H@std@@@2@XZ DD imagerel $LN3
	DD	imagerel $LN3+27
	DD	imagerel $unwind$?_Getal@?$_Vector_alloc@U?$_Vec_base_types@HV?$allocator@H@std@@@std@@@std@@QEAAAEAU?$_Wrap_alloc@V?$allocator@H@std@@@2@XZ
pdata	ENDS
;	COMDAT pdata
pdata	SEGMENT
$pdata$?_Getal@?$_Vector_alloc@U?$_Vec_base_types@HV?$allocator@H@std@@@std@@@std@@QEBAAEBU?$_Wrap_alloc@V?$allocator@H@std@@@2@XZ DD imagerel $LN3
	DD	imagerel $LN3+27
	DD	imagerel $unwind$?_Getal@?$_Vector_alloc@U?$_Vec_base_types@HV?$allocator@H@std@@@std@@@std@@QEBAAEBU?$_Wrap_alloc@V?$allocator@H@std@@@2@XZ
pdata	ENDS
;	COMDAT pdata
pdata	SEGMENT
$pdata$?_Get_data@?$_Vector_alloc@U?$_Vec_base_types@HV?$allocator@H@std@@@std@@@std@@QEAAAEAV?$_Vector_val@U?$_Simple_types@H@std@@@2@XZ DD imagerel $LN3
	DD	imagerel $LN3+27
	DD	imagerel $unwind$?_Get_data@?$_Vector_alloc@U?$_Vec_base_types@HV?$allocator@H@std@@@std@@@std@@QEAAAEAV?$_Vector_val@U?$_Simple_types@H@std@@@2@XZ
pdata	ENDS
;	COMDAT pdata
pdata	SEGMENT
$pdata$?_Get_data@?$_Vector_alloc@U?$_Vec_base_types@HV?$allocator@H@std@@@std@@@std@@QEBAAEBV?$_Vector_val@U?$_Simple_types@H@std@@@2@XZ DD imagerel $LN3
	DD	imagerel $LN3+27
	DD	imagerel $unwind$?_Get_data@?$_Vector_alloc@U?$_Vec_base_types@HV?$allocator@H@std@@@std@@@std@@QEBAAEBV?$_Vector_val@U?$_Simple_types@H@std@@@2@XZ
pdata	ENDS
;	COMDAT pdata
pdata	SEGMENT
$pdata$?_Myfirst@?$_Vector_alloc@U?$_Vec_base_types@HV?$allocator@H@std@@@std@@@std@@QEAAAEAPEAHXZ DD imagerel $LN3
	DD	imagerel $LN3+24
	DD	imagerel $unwind$?_Myfirst@?$_Vector_alloc@U?$_Vec_base_types@HV?$allocator@H@std@@@std@@@std@@QEAAAEAPEAHXZ
pdata	ENDS
;	COMDAT pdata
pdata	SEGMENT
$pdata$?_Myfirst@?$_Vector_alloc@U?$_Vec_base_types@HV?$allocator@H@std@@@std@@@std@@QEBAAEBQEAHXZ DD imagerel $LN3
	DD	imagerel $LN3+24
	DD	imagerel $unwind$?_Myfirst@?$_Vector_alloc@U?$_Vec_base_types@HV?$allocator@H@std@@@std@@@std@@QEBAAEBQEAHXZ
pdata	ENDS
;	COMDAT pdata
pdata	SEGMENT
$pdata$?_Mylast@?$_Vector_alloc@U?$_Vec_base_types@HV?$allocator@H@std@@@std@@@std@@QEAAAEAPEAHXZ DD imagerel $LN3
	DD	imagerel $LN3+28
	DD	imagerel $unwind$?_Mylast@?$_Vector_alloc@U?$_Vec_base_types@HV?$allocator@H@std@@@std@@@std@@QEAAAEAPEAHXZ
pdata	ENDS
;	COMDAT pdata
pdata	SEGMENT
$pdata$?_Mylast@?$_Vector_alloc@U?$_Vec_base_types@HV?$allocator@H@std@@@std@@@std@@QEBAAEBQEAHXZ DD imagerel $LN3
	DD	imagerel $LN3+28
	DD	imagerel $unwind$?_Mylast@?$_Vector_alloc@U?$_Vec_base_types@HV?$allocator@H@std@@@std@@@std@@QEBAAEBQEAHXZ
pdata	ENDS
;	COMDAT pdata
pdata	SEGMENT
$pdata$?_Myend@?$_Vector_alloc@U?$_Vec_base_types@HV?$allocator@H@std@@@std@@@std@@QEAAAEAPEAHXZ DD imagerel $LN3
	DD	imagerel $LN3+28
	DD	imagerel $unwind$?_Myend@?$_Vector_alloc@U?$_Vec_base_types@HV?$allocator@H@std@@@std@@@std@@QEAAAEAPEAHXZ
pdata	ENDS
;	COMDAT pdata
pdata	SEGMENT
$pdata$?_Myend@?$_Vector_alloc@U?$_Vec_base_types@HV?$allocator@H@std@@@std@@@std@@QEBAAEBQEAHXZ DD imagerel $LN3
	DD	imagerel $LN3+28
	DD	imagerel $unwind$?_Myend@?$_Vector_alloc@U?$_Vec_base_types@HV?$allocator@H@std@@@std@@@std@@QEBAAEBQEAHXZ
pdata	ENDS
;	COMDAT pdata
pdata	SEGMENT
$pdata$??0?$vector@HV?$allocator@H@std@@@std@@QEAA@XZ DD imagerel $LN3
	DD	imagerel $LN3+39
	DD	imagerel $unwind$??0?$vector@HV?$allocator@H@std@@@std@@QEAA@XZ
pdata	ENDS
;	COMDAT pdata
pdata	SEGMENT
$pdata$?push_back@?$vector@HV?$allocator@H@std@@@std@@QEAAX$$QEAH@Z DD imagerel $LN7
	DD	imagerel $LN7+621
	DD	imagerel $unwind$?push_back@?$vector@HV?$allocator@H@std@@@std@@QEAAX$$QEAH@Z
pdata	ENDS
;	COMDAT pdata
pdata	SEGMENT
$pdata$??1?$vector@HV?$allocator@H@std@@@std@@QEAA@XZ DD imagerel $LN3
	DD	imagerel $LN3+34
	DD	imagerel $unwind$??1?$vector@HV?$allocator@H@std@@@std@@QEAA@XZ
pdata	ENDS
;	COMDAT pdata
pdata	SEGMENT
$pdata$?capacity@?$vector@HV?$allocator@H@std@@@std@@QEBA_KXZ DD imagerel $LN3
	DD	imagerel $LN3+60
	DD	imagerel $unwind$?capacity@?$vector@HV?$allocator@H@std@@@std@@QEBA_KXZ
pdata	ENDS
;	COMDAT pdata
pdata	SEGMENT
$pdata$?_Unused_capacity@?$vector@HV?$allocator@H@std@@@std@@QEBA_KXZ DD imagerel $LN3
	DD	imagerel $LN3+60
	DD	imagerel $unwind$?_Unused_capacity@?$vector@HV?$allocator@H@std@@@std@@QEBA_KXZ
pdata	ENDS
;	COMDAT pdata
pdata	SEGMENT
$pdata$?size@?$vector@HV?$allocator@H@std@@@std@@QEBA_KXZ DD imagerel $LN3
	DD	imagerel $LN3+60
	DD	imagerel $unwind$?size@?$vector@HV?$allocator@H@std@@@std@@QEBA_KXZ
pdata	ENDS
;	COMDAT pdata
pdata	SEGMENT
$pdata$?max_size@?$vector@HV?$allocator@H@std@@@std@@QEBA_KXZ DD imagerel $LN3
	DD	imagerel $LN3+37
	DD	imagerel $unwind$?max_size@?$vector@HV?$allocator@H@std@@@std@@QEBA_KXZ
pdata	ENDS
;	COMDAT pdata
pdata	SEGMENT
$pdata$??A?$vector@HV?$allocator@H@std@@@std@@QEAAAEAH_K@Z DD imagerel $LN3
	DD	imagerel $LN3+41
	DD	imagerel $unwind$??A?$vector@HV?$allocator@H@std@@@std@@QEAAAEAH_K@Z
pdata	ENDS
;	COMDAT pdata
pdata	SEGMENT
$pdata$?push_back@?$vector@HV?$allocator@H@std@@@std@@QEAAXAEBH@Z DD imagerel $LN7
	DD	imagerel $LN7+595
	DD	imagerel $unwind$?push_back@?$vector@HV?$allocator@H@std@@@std@@QEAAXAEBH@Z
pdata	ENDS
;	COMDAT pdata
pdata	SEGMENT
$pdata$?clear@?$vector@HV?$allocator@H@std@@@std@@QEAAXXZ DD imagerel $LN3
	DD	imagerel $LN3+121
	DD	imagerel $unwind$?clear@?$vector@HV?$allocator@H@std@@@std@@QEAAXXZ
pdata	ENDS
;	COMDAT pdata
pdata	SEGMENT
$pdata$?_Destroy@?$vector@HV?$allocator@H@std@@@std@@IEAAXPEAH0@Z DD imagerel $LN3
	DD	imagerel $LN3+52
	DD	imagerel $unwind$?_Destroy@?$vector@HV?$allocator@H@std@@@std@@IEAAXPEAH0@Z
pdata	ENDS
;	COMDAT pdata
pdata	SEGMENT
$pdata$?_Grow_to@?$vector@HV?$allocator@H@std@@@std@@IEBA_K_K@Z DD imagerel $LN6
	DD	imagerel $LN6+161
	DD	imagerel $unwind$?_Grow_to@?$vector@HV?$allocator@H@std@@@std@@IEBA_K_K@Z
pdata	ENDS
;	COMDAT pdata
pdata	SEGMENT
$pdata$?_Inside@?$vector@HV?$allocator@H@std@@@std@@IEBA_NPEBH@Z DD imagerel $LN5
	DD	imagerel $LN5+92
	DD	imagerel $unwind$?_Inside@?$vector@HV?$allocator@H@std@@@std@@IEBA_NPEBH@Z
pdata	ENDS
;	COMDAT pdata
pdata	SEGMENT
$pdata$?_Reallocate@?$vector@HV?$allocator@H@std@@@std@@IEAAX_K@Z DD imagerel $LN11
	DD	imagerel $LN11+447
	DD	imagerel $unwind$?_Reallocate@?$vector@HV?$allocator@H@std@@@std@@IEAAX_K@Z
pdata	ENDS
;	COMDAT pdata
pdata	SEGMENT
$pdata$?catch$0@?0??_Reallocate@?$vector@HV?$allocator@H@std@@@std@@IEAAX_K@Z@4HA DD imagerel ?catch$0@?0??_Reallocate@?$vector@HV?$allocator@H@std@@@std@@IEAAX_K@Z@4HA
	DD	imagerel ?catch$0@?0??_Reallocate@?$vector@HV?$allocator@H@std@@@std@@IEAAX_K@Z@4HA+68
	DD	imagerel $unwind$?catch$0@?0??_Reallocate@?$vector@HV?$allocator@H@std@@@std@@IEAAX_K@Z@4HA
pdata	ENDS
;	COMDAT pdata
pdata	SEGMENT
